
build/telosb/main.exe:     file format elf32-msp430


Disassembly of section .text:

00004000 <__watchdog_support>:
    4000:	55 42 20 01 	mov.b	&0x0120,r5	
    4004:	35 d0 08 5a 	bis	#23048,	r5	;#0x5a08
    4008:	82 45 1c 15 	mov	r5,	&0x151c	

0000400c <__init_stack>:
    400c:	31 40 00 39 	mov	#14592,	r1	;#0x3900

00004010 <__do_copy_data>:
    4010:	3f 40 34 00 	mov	#52,	r15	;#0x0034
    4014:	0f 93       	tst	r15		
    4016:	08 24       	jz	$+18     	;abs 0x4028
    4018:	92 42 1c 15 20 01 	mov	&0x151c,&0x0120	
    401e:	2f 83       	decd	r15		
    4020:	9f 4f 48 86 00 11 	mov	-31160(r15),4352(r15);0x8648(r15), 0x1100(r15)
    4026:	f8 23       	jnz	$-14     	;abs 0x4018

00004028 <__do_clear_bss>:
    4028:	3f 40 e8 03 	mov	#1000,	r15	;#0x03e8
    402c:	0f 93       	tst	r15		
    402e:	07 24       	jz	$+16     	;abs 0x403e
    4030:	92 42 1c 15 20 01 	mov	&0x151c,&0x0120	
    4036:	1f 83       	dec	r15		
    4038:	cf 43 34 11 	mov.b	#0,	4404(r15);r3 As==00, 0x1134(r15)
    403c:	f9 23       	jnz	$-12     	;abs 0x4030

0000403e <main>:
    403e:	21 83       	decd	r1		
    4040:	b0 12 d4 49 	call	#0x49d4	
    4044:	47 4f       	mov.b	r15,	r7	
    4046:	3d 40 19 00 	mov	#25,	r13	;#0x0019
    404a:	3e 40 ff 00 	mov	#255,	r14	;#0x00ff
    404e:	3f 40 dc 11 	mov	#4572,	r15	;#0x11dc
    4052:	b0 12 d4 7b 	call	#0x7bd4	
    4056:	f2 43 a1 14 	mov.b	#-1,	&0x14a1	;r3 As==11
    405a:	f2 43 17 15 	mov.b	#-1,	&0x1517	;r3 As==11
    405e:	b2 40 80 5a 20 01 	mov	#23168,	&0x0120	;#0x5a80
    4064:	a2 42 60 01 	mov	#4,	&0x0160	;r2 As==10
    4068:	82 43 2e 01 	mov	#0,	&0x012e	;r3 As==00
    406c:	a2 42 80 01 	mov	#4,	&0x0180	;r2 As==10
    4070:	82 43 1e 01 	mov	#0,	&0x011e	;r3 As==00
    4074:	b2 40 20 02 60 01 	mov	#544,	&0x0160	;#0x0220
    407a:	b2 40 20 01 80 01 	mov	#288,	&0x0180	;#0x0120
    4080:	f2 40 84 ff 57 00 	mov.b	#-124,	&0x0057	;#0xff84
    4086:	c2 43 58 00 	mov.b	#0,	&0x0058	;r3 As==00
    408a:	b2 40 00 40 82 01 	mov	#16384,	&0x0182	;#0x4000
    4090:	3b 40 0c 00 	mov	#12,	r11	;#0x000c
    4094:	3d 40 00 08 	mov	#2048,	r13	;#0x0800
    4098:	0e 43       	clr	r14		
    409a:	0c 4d       	mov	r13,	r12	
    409c:	0c de       	bis	r14,	r12	
    409e:	59 42 57 00 	mov.b	&0x0057,r9	
    40a2:	0a 4c       	mov	r12,	r10	
    40a4:	8a 10       	swpb	r10		
    40a6:	7a f0 07 00 	and.b	#7,	r10	;#0x0007
    40aa:	79 f0 f8 ff 	and.b	#-8,	r9	;#0xfff8
    40ae:	4a d9       	bis.b	r9,	r10	
    40b0:	c2 4a 57 00 	mov.b	r10,	&0x0057	
    40b4:	c2 4c 56 00 	mov.b	r12,	&0x0056	
    40b8:	79 40 03 00 	mov.b	#3,	r9	;#0x0003
    40bc:	0a 43       	clr	r10		
    40be:	08 43       	clr	r8		
    40c0:	0f 3c       	jmp	$+32     	;abs 0x40e0
    40c2:	18 42 90 01 	mov	&0x0190,r8	
    40c6:	38 52       	add	#8,	r8	;r2 As==11
    40c8:	82 48 92 01 	mov	r8,	&0x0192	
    40cc:	b2 f0 fe ff 82 01 	and	#-2,	&0x0182	;#0xfffe
    40d2:	92 b3 82 01 	bit	#1,	&0x0182	;r3 As==01
    40d6:	fd 27       	jz	$-4      	;abs 0x40d2
    40d8:	1f 42 70 01 	mov	&0x0170,r15	
    40dc:	08 4a       	mov	r10,	r8	
    40de:	0a 4f       	mov	r15,	r10	
    40e0:	79 53       	add.b	#-1,	r9	;r3 As==11
    40e2:	ef 23       	jnz	$-32     	;abs 0x40c2
    40e4:	0a 88       	sub	r8,	r10	
    40e6:	3a 90 01 04 	cmp	#1025,	r10	;#0x0401
    40ea:	01 2c       	jc	$+4      	;abs 0x40ee
    40ec:	0e 4c       	mov	r12,	r14	
    40ee:	0d 11       	rra	r13		
    40f0:	3b 53       	add	#-1,	r11	;r3 As==11
    40f2:	d3 23       	jnz	$-88     	;abs 0x409a
    40f4:	0f 4e       	mov	r14,	r15	
    40f6:	3f f0 e0 00 	and	#224,	r15	;#0x00e0
    40fa:	3f 90 e0 00 	cmp	#224,	r15	;#0x00e0
    40fe:	02 20       	jnz	$+6      	;abs 0x4104
    4100:	3e f0 e0 ff 	and	#-32,	r14	;#0xffe0
    4104:	5c 42 57 00 	mov.b	&0x0057,r12	
    4108:	0d 4e       	mov	r14,	r13	
    410a:	8d 10       	swpb	r13		
    410c:	7d f0 07 00 	and.b	#7,	r13	;#0x0007
    4110:	7c f0 f8 ff 	and.b	#-8,	r12	;#0xfff8
    4114:	4d dc       	bis.b	r12,	r13	
    4116:	c2 4d 57 00 	mov.b	r13,	&0x0057	
    411a:	c2 4e 56 00 	mov.b	r14,	&0x0056	
    411e:	5e 42 57 00 	mov.b	&0x0057,r14	
    4122:	7e f0 07 00 	and.b	#7,	r14	;#0x0007
    4126:	7e d0 80 ff 	bis.b	#-128,	r14	;#0xff80
    412a:	c2 4e 57 00 	mov.b	r14,	&0x0057	
    412e:	e2 42 58 00 	mov.b	#4,	&0x0058	;r2 As==10
    4132:	f2 f0 fd ff 00 00 	and.b	#-3,	&0x0000	;#0xfffd
    4138:	82 43 70 01 	mov	#0,	&0x0170	;r3 As==00
    413c:	b2 40 02 02 60 01 	mov	#514,	&0x0160	;#0x0202
    4142:	82 43 90 01 	mov	#0,	&0x0190	;r3 As==00
    4146:	b2 40 02 01 80 01 	mov	#258,	&0x0180	;#0x0102
    414c:	1e 42 60 01 	mov	&0x0160,r14	
    4150:	3e f0 cf ff 	and	#-49,	r14	;#0xffcf
    4154:	3e d0 20 00 	bis	#32,	r14	;#0x0020
    4158:	82 4e 60 01 	mov	r14,	&0x0160	
    415c:	1e 42 80 01 	mov	&0x0180,r14	
    4160:	3e f0 cf ff 	and	#-49,	r14	;#0xffcf
    4164:	3e d0 20 00 	bis	#32,	r14	;#0x0020
    4168:	82 4e 80 01 	mov	r14,	&0x0180	
    416c:	c2 43 26 00 	mov.b	#0,	&0x0026	;r3 As==00
    4170:	c2 43 2e 00 	mov.b	#0,	&0x002e	;r3 As==00
    4174:	c2 43 1b 00 	mov.b	#0,	&0x001b	;r3 As==00
    4178:	c2 43 1f 00 	mov.b	#0,	&0x001f	;r3 As==00
    417c:	c2 43 33 00 	mov.b	#0,	&0x0033	;r3 As==00
    4180:	c2 43 37 00 	mov.b	#0,	&0x0037	;r3 As==00
    4184:	c2 43 21 00 	mov.b	#0,	&0x0021	;r3 As==00
    4188:	f2 40 e0 ff 22 00 	mov.b	#-32,	&0x0022	;#0xffe0
    418e:	f2 40 30 00 29 00 	mov.b	#48,	&0x0029	;#0x0030
    4194:	f2 40 7b 00 2a 00 	mov.b	#123,	&0x002a	;#0x007b
    419a:	c2 43 19 00 	mov.b	#0,	&0x0019	;r3 As==00
    419e:	f2 40 f1 ff 1a 00 	mov.b	#-15,	&0x001a	;#0xfff1
    41a4:	f2 40 dd ff 1d 00 	mov.b	#-35,	&0x001d	;#0xffdd
    41aa:	f2 40 fd ff 1e 00 	mov.b	#-3,	&0x001e	;#0xfffd
    41b0:	f2 43 31 00 	mov.b	#-1,	&0x0031	;r3 As==11
    41b4:	f2 43 32 00 	mov.b	#-1,	&0x0032	;r3 As==11
    41b8:	c2 43 35 00 	mov.b	#0,	&0x0035	;r3 As==00
    41bc:	f2 43 36 00 	mov.b	#-1,	&0x0036	;r3 As==11
    41c0:	c2 43 25 00 	mov.b	#0,	&0x0025	;r3 As==00
    41c4:	c2 43 2d 00 	mov.b	#0,	&0x002d	;r3 As==00
    41c8:	1f 42 70 01 	mov	&0x0170,r15	
    41cc:	1e 42 70 01 	mov	&0x0170,r14	
    41d0:	0e 8f       	sub	r15,	r14	
    41d2:	3e 90 01 28 	cmp	#10241,	r14	;#0x2801
    41d6:	fa 2b       	jnc	$-10     	;abs 0x41cc
    41d8:	e2 d3 1a 00 	bis.b	#2,	&0x001a	;r3 As==10
    41dc:	f2 d2 1a 00 	bis.b	#8,	&0x001a	;r2 As==11
    41e0:	f2 d0 80 ff 1e 00 	bis.b	#-128,	&0x001e	;#0xff80
    41e6:	f2 d0 10 00 1e 00 	bis.b	#16,	&0x001e	;#0x0010
    41ec:	f2 d0 80 ff 1d 00 	bis.b	#-128,	&0x001d	;#0xff80
    41f2:	f2 d0 10 00 1d 00 	bis.b	#16,	&0x001d	;#0x0010
    41f8:	03 43       	nop			
    41fa:	03 43       	nop			
    41fc:	f2 f0 ef ff 1d 00 	and.b	#-17,	&0x001d	;#0xffef
    4202:	f2 f0 f7 ff 19 00 	and.b	#-9,	&0x0019	;#0xfff7
    4208:	5f 43       	mov.b	#1,	r15	;r3 As==01
    420a:	b0 12 ba 46 	call	#0x46ba	
    420e:	4f 43       	clr.b	r15		
    4210:	b0 12 ba 46 	call	#0x46ba	
    4214:	5f 43       	mov.b	#1,	r15	;r3 As==01
    4216:	b0 12 ba 46 	call	#0x46ba	
    421a:	5f 43       	mov.b	#1,	r15	;r3 As==01
    421c:	b0 12 ba 46 	call	#0x46ba	
    4220:	5f 43       	mov.b	#1,	r15	;r3 As==01
    4222:	b0 12 ba 46 	call	#0x46ba	
    4226:	4f 43       	clr.b	r15		
    4228:	b0 12 ba 46 	call	#0x46ba	
    422c:	4f 43       	clr.b	r15		
    422e:	b0 12 ba 46 	call	#0x46ba	
    4232:	5f 43       	mov.b	#1,	r15	;r3 As==01
    4234:	b0 12 ba 46 	call	#0x46ba	
    4238:	f2 d0 10 00 1d 00 	bis.b	#16,	&0x001d	;#0x0010
    423e:	f2 d2 19 00 	bis.b	#8,	&0x0019	;r2 As==11
    4242:	e2 d3 19 00 	bis.b	#2,	&0x0019	;r3 As==10
    4246:	f2 d0 10 00 32 00 	bis.b	#16,	&0x0032	;#0x0010
    424c:	f2 d0 20 00 32 00 	bis.b	#32,	&0x0032	;#0x0020
    4252:	f2 d0 40 00 32 00 	bis.b	#64,	&0x0032	;#0x0040
    4258:	f2 d0 10 00 31 00 	bis.b	#16,	&0x0031	;#0x0010
    425e:	f2 d0 20 00 31 00 	bis.b	#32,	&0x0031	;#0x0020
    4264:	f2 d0 40 00 31 00 	bis.b	#64,	&0x0031	;#0x0040
    426a:	b0 12 b8 75 	call	#0x75b8	
    426e:	4f 93       	tst.b	r15		
    4270:	fc 23       	jnz	$-6      	;abs 0x426a
    4272:	f2 43 ab 14 	mov.b	#-1,	&0x14ab	;r3 As==11
    4276:	c2 43 68 12 	mov.b	#0,	&0x1268	;r3 As==00
    427a:	c2 43 6a 12 	mov.b	#0,	&0x126a	;r3 As==00
    427e:	f2 40 0a 00 20 13 	mov.b	#10,	&0x1320	;#0x000a
    4284:	c2 43 49 12 	mov.b	#0,	&0x1249	;r3 As==00
    4288:	c2 43 5b 12 	mov.b	#0,	&0x125b	;r3 As==00
    428c:	c2 43 a2 14 	mov.b	#0,	&0x14a2	;r3 As==00
    4290:	82 43 1a 15 	mov	#0,	&0x151a	;r3 As==00
    4294:	c2 43 12 15 	mov.b	#0,	&0x1512	;r3 As==00
    4298:	c2 43 7e 12 	mov.b	#0,	&0x127e	;r3 As==00
    429c:	b0 12 1a 46 	call	#0x461a	
    42a0:	c2 43 71 12 	mov.b	#0,	&0x1271	;r3 As==00
    42a4:	c2 43 70 12 	mov.b	#0,	&0x1270	;r3 As==00
    42a8:	c2 43 34 11 	mov.b	#0,	&0x1134	;r3 As==00
    42ac:	f2 43 02 12 	mov.b	#-1,	&0x1202	;r3 As==11
    42b0:	b2 43 92 11 	mov	#-1,	&0x1192	;r3 As==11
    42b4:	c2 43 94 11 	mov.b	#0,	&0x1194	;r3 As==00
    42b8:	b2 43 96 11 	mov	#-1,	&0x1196	;r3 As==11
    42bc:	c2 43 98 11 	mov.b	#0,	&0x1198	;r3 As==00
    42c0:	b2 43 9a 11 	mov	#-1,	&0x119a	;r3 As==11
    42c4:	c2 43 9c 11 	mov.b	#0,	&0x119c	;r3 As==00
    42c8:	b2 43 9e 11 	mov	#-1,	&0x119e	;r3 As==11
    42cc:	c2 43 a0 11 	mov.b	#0,	&0x11a0	;r3 As==00
    42d0:	b0 12 a8 45 	call	#0x45a8	
    42d4:	c2 4f 43 13 	mov.b	r15,	&0x1343	
    42d8:	1f 42 32 11 	mov	&0x1132,r15	
    42dc:	1f 53       	inc	r15		
    42de:	82 4f 3c 12 	mov	r15,	&0x123c	
    42e2:	82 43 3e 12 	mov	#0,	&0x123e	;r3 As==00
    42e6:	b2 f0 ef ff 86 01 	and	#-17,	&0x0186	;#0xffef
    42ec:	b2 40 00 40 86 01 	mov	#16384,	&0x0186	;#0x4000
    42f2:	b2 40 6c 14 88 11 	mov	#5228,	&0x1188	;#0x146c
    42f8:	f2 f0 ef ff 22 00 	and.b	#-17,	&0x0022	;#0xffef
    42fe:	e2 d2 1e 00 	bis.b	#4,	&0x001e	;r2 As==10
    4302:	f2 f0 fd ff 1e 00 	and.b	#-3,	&0x001e	;#0xfffd
    4308:	b2 f0 ef ff 82 01 	and	#-17,	&0x0182	;#0xffef
    430e:	b2 40 00 40 82 01 	mov	#16384,	&0x0182	;#0x4000
    4314:	f2 43 5a 12 	mov.b	#-1,	&0x125a	;r3 As==11
    4318:	c2 43 28 13 	mov.b	#0,	&0x1328	;r3 As==00
    431c:	c2 43 29 13 	mov.b	#0,	&0x1329	;r3 As==00
    4320:	c2 43 2a 13 	mov.b	#0,	&0x132a	;r3 As==00
    4324:	c2 43 2b 13 	mov.b	#0,	&0x132b	;r3 As==00
    4328:	e2 d2 1e 00 	bis.b	#4,	&0x001e	;r2 As==10
    432c:	f2 d0 40 00 1e 00 	bis.b	#64,	&0x001e	;#0x0040
    4332:	f2 d0 20 00 1e 00 	bis.b	#32,	&0x001e	;#0x0020
    4338:	b0 12 d4 49 	call	#0x49d4	
    433c:	1b 42 1e 11 	mov	&0x111e,r11	
    4340:	b0 12 e6 49 	call	#0x49e6	
    4344:	82 4b 60 12 	mov	r11,	&0x1260	
    4348:	b0 12 72 47 	call	#0x4772	
    434c:	82 4c 38 13 	mov	r12,	&0x1338	
    4350:	82 4d 3a 13 	mov	r13,	&0x133a	
    4354:	82 4e 3c 13 	mov	r14,	&0x133c	
    4358:	82 4f 3e 13 	mov	r15,	&0x133e	
    435c:	d2 42 1c 11 0c 12 	mov.b	&0x111c,&0x120c	
    4362:	c2 43 0d 12 	mov.b	#0,	&0x120d	;r3 As==00
    4366:	f2 40 1f 00 26 13 	mov.b	#31,	&0x1326	;#0x001f
    436c:	f2 40 1a 00 41 13 	mov.b	#26,	&0x1341	;#0x001a
    4372:	b0 12 72 47 	call	#0x4772	
    4376:	82 4c 38 13 	mov	r12,	&0x1338	
    437a:	82 4d 3a 13 	mov	r13,	&0x133a	
    437e:	82 4e 3c 13 	mov	r14,	&0x133c	
    4382:	82 4f 3e 13 	mov	r15,	&0x133e	
    4386:	3e 40 38 13 	mov	#4920,	r14	;#0x1338
    438a:	0d 4e       	mov	r14,	r13	
    438c:	3d 50 07 00 	add	#7,	r13	;#0x0007
    4390:	0c 43       	clr	r12		
    4392:	6f 4e       	mov.b	@r14,	r15	
    4394:	ee 4d 00 00 	mov.b	@r13,	0(r14)	;0x0000(r14)
    4398:	cd 4f 00 00 	mov.b	r15,	0(r13)	;0x0000(r13)
    439c:	1c 53       	inc	r12		
    439e:	1e 53       	inc	r14		
    43a0:	3d 53       	add	#-1,	r13	;r3 As==11
    43a2:	2c 92       	cmp	#4,	r12	;r2 As==10
    43a4:	f6 23       	jnz	$-18     	;abs 0x4392
    43a6:	d2 43 fc 11 	mov.b	#1,	&0x11fc	;r3 As==01
    43aa:	c2 43 dc 14 	mov.b	#0,	&0x14dc	;r3 As==00
    43ae:	d2 43 0f 12 	mov.b	#1,	&0x120f	;r3 As==01
    43b2:	c2 43 36 13 	mov.b	#0,	&0x1336	;r3 As==00
    43b6:	c2 43 68 11 	mov.b	#0,	&0x1168	;r3 As==00
    43ba:	c2 43 66 11 	mov.b	#0,	&0x1166	;r3 As==00
    43be:	b0 12 b8 75 	call	#0x75b8	
    43c2:	4f 93       	tst.b	r15		
    43c4:	fc 23       	jnz	$-6      	;abs 0x43be
    43c6:	4f 47       	mov.b	r7,	r15	
    43c8:	b0 12 e6 49 	call	#0x49e6	
    43cc:	32 d2       	eint			
    43ce:	b0 12 d4 49 	call	#0x49d4	
    43d2:	4e 4f       	mov.b	r15,	r14	
    43d4:	f2 90 0a 00 20 13 	cmp.b	#10,	&0x1320	;#0x000a
    43da:	06 24       	jz	$+14     	;abs 0x43e8
    43dc:	e2 92 07 12 	cmp.b	#4,	&0x1207	;r2 As==10
    43e0:	03 24       	jz	$+8      	;abs 0x43e8
    43e2:	b0 12 e6 49 	call	#0x49e6	
    43e6:	07 3c       	jmp	$+16     	;abs 0x43f6
    43e8:	4f 4e       	mov.b	r14,	r15	
    43ea:	b0 12 e6 49 	call	#0x49e6	
    43ee:	7f 40 12 00 	mov.b	#18,	r15	;#0x0012
    43f2:	b0 12 ee 49 	call	#0x49ee	
    43f6:	5f 43       	mov.b	#1,	r15	;r3 As==01
    43f8:	b0 12 d4 5b 	call	#0x5bd4	
    43fc:	4f 93       	tst.b	r15		
    43fe:	19 20       	jnz	$+52     	;abs 0x4432
    4400:	b0 12 d4 49 	call	#0x49d4	
    4404:	82 93 82 11 	tst	&0x1182	
    4408:	03 24       	jz	$+8      	;abs 0x4410
    440a:	b0 12 e6 49 	call	#0x49e6	
    440e:	19 3c       	jmp	$+52     	;abs 0x4442
    4410:	92 43 82 11 	mov	#1,	&0x1182	;r3 As==01
    4414:	b0 12 e6 49 	call	#0x49e6	
    4418:	b0 12 d4 49 	call	#0x49d4	
    441c:	f2 d0 20 00 1d 00 	bis.b	#32,	&0x001d	;#0x0020
    4422:	b0 12 e6 49 	call	#0x49e6	
    4426:	3e 40 14 00 	mov	#20,	r14	;#0x0014
    442a:	0f 43       	clr	r15		
    442c:	b0 12 88 55 	call	#0x5588	
    4430:	08 3c       	jmp	$+18     	;abs 0x4442
    4432:	6f 43       	mov.b	#2,	r15	;r3 As==10
    4434:	b0 12 60 52 	call	#0x5260	
    4438:	4f 93       	tst.b	r15		
    443a:	03 20       	jnz	$+8      	;abs 0x4442
    443c:	5f 43       	mov.b	#1,	r15	;r3 As==01
    443e:	b0 12 60 52 	call	#0x5260	
    4442:	0f 43       	clr	r15		
    4444:	8f 43 12 12 	mov	#0,	4626(r15);r3 As==00, 0x1212(r15)
    4448:	8f 43 b2 14 	mov	#0,	5298(r15);r3 As==00, 0x14b2(r15)
    444c:	2f 53       	incd	r15		
    444e:	3f 90 28 00 	cmp	#40,	r15	;#0x0028
    4452:	f8 23       	jnz	$-14     	;abs 0x4444
    4454:	82 43 4e 12 	mov	#0,	&0x124e	;r3 As==00
    4458:	82 43 50 12 	mov	#0,	&0x1250	;r3 As==00
    445c:	82 43 52 12 	mov	#0,	&0x1252	;r3 As==00
    4460:	82 43 54 12 	mov	#0,	&0x1254	;r3 As==00
    4464:	82 43 56 12 	mov	#0,	&0x1256	;r3 As==00
    4468:	82 43 58 12 	mov	#0,	&0x1258	;r3 As==00
    446c:	b0 12 d4 49 	call	#0x49d4	
    4470:	4a 4f       	mov.b	r15,	r10	
    4472:	86 3c       	jmp	$+270    	;abs 0x4580
    4474:	c2 93 24 11 	tst.b	&0x1124	
    4478:	77 24       	jz	$+240    	;abs 0x4568
    447a:	b2 b0 10 00 62 01 	bit	#16,	&0x0162	;#0x0010
    4480:	08 20       	jnz	$+18     	;abs 0x4492
    4482:	b2 b0 10 00 64 01 	bit	#16,	&0x0164	;#0x0010
    4488:	04 20       	jnz	$+10     	;abs 0x4492
    448a:	b2 b0 10 00 66 01 	bit	#16,	&0x0166	;#0x0010
    4490:	07 24       	jz	$+16     	;abs 0x44a0
    4492:	1e 42 60 01 	mov	&0x0160,r14	
    4496:	3e f0 00 03 	and	#768,	r14	;#0x0300
    449a:	3e 90 00 02 	cmp	#512,	r14	;#0x0200
    449e:	2e 24       	jz	$+94     	;abs 0x44fc
    44a0:	5f 42 04 00 	mov.b	&0x0004,r15	
    44a4:	3f b0 c0 00 	bit	#192,	r15	;#0x00c0
    44a8:	05 24       	jz	$+12     	;abs 0x44b4
    44aa:	5f 42 71 00 	mov.b	&0x0071,r15	
    44ae:	3f f0 20 00 	and	#32,	r15	;#0x0020
    44b2:	26 20       	jnz	$+78     	;abs 0x4500
    44b4:	5f 42 05 00 	mov.b	&0x0005,r15	
    44b8:	3f b0 30 00 	bit	#48,	r15	;#0x0030
    44bc:	05 24       	jz	$+12     	;abs 0x44c8
    44be:	5f 42 79 00 	mov.b	&0x0079,r15	
    44c2:	3f f0 20 00 	and	#32,	r15	;#0x0020
    44c6:	1e 20       	jnz	$+62     	;abs 0x4504
    44c8:	5f 42 70 00 	mov.b	&0x0070,r15	
    44cc:	1f f3       	and	#1,	r15	;r3 As==01
    44ce:	1c 24       	jz	$+58     	;abs 0x4508
    44d0:	5f 42 71 00 	mov.b	&0x0071,r15	
    44d4:	3f f0 20 00 	and	#32,	r15	;#0x0020
    44d8:	1a 24       	jz	$+54     	;abs 0x450e
    44da:	5f 42 72 00 	mov.b	&0x0072,r15	
    44de:	3f f0 20 00 	and	#32,	r15	;#0x0020
    44e2:	18 24       	jz	$+50     	;abs 0x4514
    44e4:	5f 42 70 00 	mov.b	&0x0070,r15	
    44e8:	2f f2       	and	#4,	r15	;r2 As==10
    44ea:	17 24       	jz	$+48     	;abs 0x451a
    44ec:	5f 42 70 00 	mov.b	&0x0070,r15	
    44f0:	3f f0 20 00 	and	#32,	r15	;#0x0020
    44f4:	15 20       	jnz	$+44     	;abs 0x4520
    44f6:	7e 40 05 00 	mov.b	#5,	r14	;#0x0005
    44fa:	13 3c       	jmp	$+40     	;abs 0x4522
    44fc:	6e 43       	mov.b	#2,	r14	;r3 As==10
    44fe:	11 3c       	jmp	$+36     	;abs 0x4522
    4500:	6e 43       	mov.b	#2,	r14	;r3 As==10
    4502:	0f 3c       	jmp	$+32     	;abs 0x4522
    4504:	6e 43       	mov.b	#2,	r14	;r3 As==10
    4506:	0d 3c       	jmp	$+28     	;abs 0x4522
    4508:	7e 40 05 00 	mov.b	#5,	r14	;#0x0005
    450c:	0a 3c       	jmp	$+22     	;abs 0x4522
    450e:	7e 40 05 00 	mov.b	#5,	r14	;#0x0005
    4512:	07 3c       	jmp	$+16     	;abs 0x4522
    4514:	7e 40 05 00 	mov.b	#5,	r14	;#0x0005
    4518:	04 3c       	jmp	$+10     	;abs 0x4522
    451a:	7e 40 05 00 	mov.b	#5,	r14	;#0x0005
    451e:	01 3c       	jmp	$+4      	;abs 0x4522
    4520:	6e 43       	mov.b	#2,	r14	;r3 As==10
    4522:	b2 b0 10 00 a0 01 	bit	#16,	&0x01a0	;#0x0010
    4528:	19 24       	jz	$+52     	;abs 0x455c
    452a:	b2 b0 10 00 a2 01 	bit	#16,	&0x01a2	;#0x0010
    4530:	05 24       	jz	$+12     	;abs 0x453c
    4532:	b2 b2 a2 01 	bit	#8,	&0x01a2	;r2 As==11
    4536:	0f 24       	jz	$+32     	;abs 0x4556
    4538:	6e 43       	mov.b	#2,	r14	;r3 As==10
    453a:	10 3c       	jmp	$+34     	;abs 0x455c
    453c:	1f 42 a2 01 	mov	&0x01a2,r15	
    4540:	3f b0 00 04 	bit	#1024,	r15	;#0x0400
    4544:	0b 24       	jz	$+24     	;abs 0x455c
    4546:	1d 42 60 01 	mov	&0x0160,r13	
    454a:	3d f0 00 03 	and	#768,	r13	;#0x0300
    454e:	3d 90 00 02 	cmp	#512,	r13	;#0x0200
    4552:	04 20       	jnz	$+10     	;abs 0x455c
    4554:	02 3c       	jmp	$+6      	;abs 0x455a
    4556:	4e 43       	clr.b	r14		
    4558:	01 3c       	jmp	$+4      	;abs 0x455c
    455a:	6e 43       	mov.b	#2,	r14	;r3 As==10
    455c:	7e 90 05 00 	cmp.b	#5,	r14	;#0x0005
    4560:	01 28       	jnc	$+4      	;abs 0x4564
    4562:	6e 42       	mov.b	#4,	r14	;r2 As==10
    4564:	c2 4e 86 11 	mov.b	r14,	&0x1186	
    4568:	5e 42 86 11 	mov.b	&0x1186,r14	
    456c:	0e 5e       	rla	r14		
    456e:	1e 4e 30 86 	mov	-31184(r14),r14	;0x8630(r14)
    4572:	3e d2       	bis	#8,	r14	;r2 As==11
    4574:	81 4e 00 00 	mov	r14,	0(r1)	;0x0000(r1)
    4578:	22 d1       	bis	@r1,	r2	
    457a:	32 c2       	dint			
    457c:	03 43       	nop			
    457e:	03 43       	nop			
    4580:	f2 93 a1 14 	cmp.b	#-1,	&0x14a1	;r3 As==11
    4584:	77 27       	jz	$-272    	;abs 0x4474
    4586:	b0 12 50 49 	call	#0x4950	
    458a:	4b 4f       	mov.b	r15,	r11	
    458c:	7f 93       	cmp.b	#-1,	r15	;r3 As==11
    458e:	72 27       	jz	$-282    	;abs 0x4474
    4590:	4f 4a       	mov.b	r10,	r15	
    4592:	b0 12 e6 49 	call	#0x49e6	
    4596:	4f 4b       	mov.b	r11,	r15	
    4598:	b0 12 4a 69 	call	#0x694a	
    459c:	67 3f       	jmp	$-304    	;abs 0x446c

0000459e <__stop_progExec__>:
    459e:	32 d0 f0 00 	bis	#240,	r2	;#0x00f0
    45a2:	fd 3f       	jmp	$-4      	;abs 0x459e

000045a4 <__ctors_end>:
    45a4:	30 40 c2 85 	br	#0x85c2	

000045a8 <RandomMlcgC__Random__rand16>:
    45a8:	0b 12       	push	r11		
    45aa:	0a 12       	push	r10		
    45ac:	09 12       	push	r9		
    45ae:	08 12       	push	r8		
    45b0:	07 12       	push	r7		
    45b2:	06 12       	push	r6		
    45b4:	3c 40 4e 83 	mov	#-31922,r12	;#0x834e
    45b8:	0d 43       	clr	r13		
    45ba:	1e 42 3c 12 	mov	&0x123c,r14	
    45be:	1f 42 3e 12 	mov	&0x123e,r15	
    45c2:	b0 12 ec 79 	call	#0x79ec	
    45c6:	07 4d       	mov	r13,	r7	
    45c8:	08 4e       	mov	r14,	r8	
    45ca:	09 4f       	mov	r15,	r9	
    45cc:	0e 4c       	mov	r12,	r14	
    45ce:	0f 47       	mov	r7,	r15	
    45d0:	12 c3       	clrc			
    45d2:	0f 10       	rrc	r15		
    45d4:	0e 10       	rrc	r14		
    45d6:	08 5e       	add	r14,	r8	
    45d8:	09 6f       	addc	r15,	r9	
    45da:	09 93       	tst	r9		
    45dc:	05 34       	jge	$+12     	;abs 0x45e8
    45de:	38 f3       	and	#-1,	r8	;r3 As==11
    45e0:	39 f0 ff 7f 	and	#32767,	r9	;#0x7fff
    45e4:	18 53       	inc	r8		
    45e6:	09 63       	adc	r9		
    45e8:	82 48 3c 12 	mov	r8,	&0x123c	
    45ec:	82 49 3e 12 	mov	r9,	&0x123e	
    45f0:	0f 48       	mov	r8,	r15	
    45f2:	36 41       	pop	r6		
    45f4:	37 41       	pop	r7		
    45f6:	38 41       	pop	r8		
    45f8:	39 41       	pop	r9		
    45fa:	3a 41       	pop	r10		
    45fc:	3b 41       	pop	r11		
    45fe:	30 41       	ret			

00004600 <CC2420SpiP__SpiByte__write>:
    4600:	c2 4f 77 00 	mov.b	r15,	&0x0077	
    4604:	5f 42 02 00 	mov.b	&0x0002,r15	
    4608:	3f f0 40 00 	and	#64,	r15	;#0x0040
    460c:	fb 27       	jz	$-8      	;abs 0x4604
    460e:	f2 f0 bf ff 02 00 	and.b	#-65,	&0x0002	;#0xffbf
    4614:	5f 42 76 00 	mov.b	&0x0076,r15	
    4618:	30 41       	ret			

0000461a <SerialP__rxInit>:
    461a:	c2 43 3f 14 	mov.b	#0,	&0x143f	;r3 As==00
    461e:	c2 43 3e 14 	mov.b	#0,	&0x143e	;r3 As==00
    4622:	e2 42 07 12 	mov.b	#4,	&0x1207	;r2 As==10
    4626:	c2 43 23 13 	mov.b	#0,	&0x1323	;r3 As==00
    462a:	c2 43 44 14 	mov.b	#0,	&0x1444	;r3 As==00
    462e:	c2 43 0a 12 	mov.b	#0,	&0x120a	;r3 As==00
    4632:	82 43 7c 12 	mov	#0,	&0x127c	;r3 As==00
    4636:	30 41       	ret			

00004638 <OneWireMasterP__BusyWait__wait>:
    4638:	1e 42 70 01 	mov	&0x0170,r14	
    463c:	3f 90 01 80 	cmp	#-32767,r15	;#0x8001
    4640:	0a 28       	jnc	$+22     	;abs 0x4656
    4642:	3f 50 00 80 	add	#-32768,r15	;#0x8000
    4646:	1d 42 70 01 	mov	&0x0170,r13	
    464a:	0d 8e       	sub	r14,	r13	
    464c:	0f 9d       	cmp	r13,	r15	
    464e:	fb 2f       	jc	$-8      	;abs 0x4646
    4650:	0e 5f       	add	r15,	r14	
    4652:	3f 40 00 80 	mov	#-32768,r15	;#0x8000
    4656:	1d 42 70 01 	mov	&0x0170,r13	
    465a:	0d 8e       	sub	r14,	r13	
    465c:	0f 9d       	cmp	r13,	r15	
    465e:	fb 2f       	jc	$-8      	;abs 0x4656
    4660:	30 41       	ret			

00004662 <OneWireMasterP__Pin__makeInput>:
    4662:	f2 f0 ef ff 2a 00 	and.b	#-17,	&0x002a	;#0xffef
    4668:	30 41       	ret			

0000466a <OneWireMasterP__Pin__makeOutput>:
    466a:	f2 d0 10 00 2a 00 	bis.b	#16,	&0x002a	;#0x0010
    4670:	30 41       	ret			

00004672 <Msp430TimerP__1__Timer__get>:
    4672:	1f 42 90 01 	mov	&0x0190,r15	
    4676:	01 3c       	jmp	$+4      	;abs 0x467a
    4678:	0f 4e       	mov	r14,	r15	
    467a:	1e 42 90 01 	mov	&0x0190,r14	
    467e:	0f 9e       	cmp	r14,	r15	
    4680:	fb 23       	jnz	$-8      	;abs 0x4678
    4682:	30 41       	ret			

00004684 <GpioCaptureC__0__enableCapture>:
    4684:	b2 f0 ef ff 84 01 	and	#-17,	&0x0184	;#0xffef
    468a:	e2 d3 1f 00 	bis.b	#2,	&0x001f	;r3 As==10
    468e:	b2 f0 fe ff 84 01 	and	#-2,	&0x0184	;#0xfffe
    4694:	b2 f0 fd ff 84 01 	and	#-3,	&0x0184	;#0xfffd
    469a:	4f 4f       	mov.b	r15,	r15	
    469c:	8f 10       	swpb	r15		
    469e:	7e 40 06 00 	mov.b	#6,	r14	;#0x0006
    46a2:	0f 5f       	rla	r15		
    46a4:	7e 53       	add.b	#-1,	r14	;r3 As==11
    46a6:	fd 23       	jnz	$-4      	;abs 0x46a2
    46a8:	3f d0 00 01 	bis	#256,	r15	;#0x0100
    46ac:	82 4f 84 01 	mov	r15,	&0x0184	
    46b0:	b2 d0 10 00 84 01 	bis	#16,	&0x0184	;#0x0010
    46b6:	4f 43       	clr.b	r15		
    46b8:	30 41       	ret			

000046ba <MotePlatformC__TOSH_FLASH_M25P_DP_bit>:
    46ba:	4f 93       	tst.b	r15		
    46bc:	04 24       	jz	$+10     	;abs 0x46c6
    46be:	5f 42 19 00 	mov.b	&0x0019,r15	
    46c2:	6f d3       	bis.b	#2,	r15	;r3 As==10
    46c4:	04 3c       	jmp	$+10     	;abs 0x46ce
    46c6:	5f 42 19 00 	mov.b	&0x0019,r15	
    46ca:	7f f0 fd ff 	and.b	#-3,	r15	;#0xfffd
    46ce:	c2 4f 19 00 	mov.b	r15,	&0x0019	
    46d2:	f2 d2 19 00 	bis.b	#8,	&0x0019	;r2 As==11
    46d6:	f2 f0 f7 ff 19 00 	and.b	#-9,	&0x0019	;#0xfff7
    46dc:	30 41       	ret			

000046de <HplMsp430Usart1P__Usart__disableSpi>:
    46de:	f2 f0 ef ff 05 00 	and.b	#-17,	&0x0005	;#0xffef
    46e4:	3f 40 33 00 	mov	#51,	r15	;#0x0033
    46e8:	ff f0 fd ff 00 00 	and.b	#-3,	0(r15)	;#0xfffd, 0x0000(r15)
    46ee:	ff f0 fb ff 00 00 	and.b	#-5,	0(r15)	;#0xfffb, 0x0000(r15)
    46f4:	ff f0 f7 ff 00 00 	and.b	#-9,	0(r15)	;#0xfff7, 0x0000(r15)
    46fa:	30 41       	ret			

000046fc <HplMsp430Usart1P__Usart__disableUart>:
    46fc:	f2 f0 cf ff 05 00 	and.b	#-49,	&0x0005	;#0xffcf
    4702:	3f 40 1b 00 	mov	#27,	r15	;#0x001b
    4706:	ff f0 bf ff 00 00 	and.b	#-65,	0(r15)	;#0xffbf, 0x0000(r15)
    470c:	ff f0 7f 00 00 00 	and.b	#127,	0(r15)	;#0x007f, 0x0000(r15)
    4712:	30 41       	ret			

00004714 <CC2420PacketP__getNetwork>:
    4714:	5c 4f 02 00 	mov.b	2(r15),	r12	;0x0002(r15)
    4718:	8c 10       	swpb	r12		
    471a:	5e 4f 01 00 	mov.b	1(r15),	r14	;0x0001(r15)
    471e:	0c de       	bis	r14,	r12	
    4720:	0e 4c       	mov	r12,	r14	
    4722:	8e 10       	swpb	r14		
    4724:	4e 4e       	mov.b	r14,	r14	
    4726:	12 c3       	clrc			
    4728:	0e 10       	rrc	r14		
    472a:	12 c3       	clrc			
    472c:	0e 10       	rrc	r14		
    472e:	3e f0 03 00 	and	#3,	r14	;#0x0003
    4732:	5d 4e 3c 86 	mov.b	-31172(r14),r13	;0x863c(r14)
    4736:	8d 11       	sxt	r13		
    4738:	0e 4c       	mov	r12,	r14	
    473a:	8e 10       	swpb	r14		
    473c:	4e 4e       	mov.b	r14,	r14	
    473e:	7c 40 06 00 	mov.b	#6,	r12	;#0x0006
    4742:	12 c3       	clrc			
    4744:	0e 10       	rrc	r14		
    4746:	7c 53       	add.b	#-1,	r12	;r3 As==11
    4748:	fc 23       	jnz	$-6      	;abs 0x4742
    474a:	5e 4e 3c 86 	mov.b	-31172(r14),r14	;0x863c(r14)
    474e:	8e 11       	sxt	r14		
    4750:	0e 5d       	add	r13,	r14	
    4752:	3e 50 06 00 	add	#6,	r14	;#0x0006
    4756:	0f 5e       	add	r14,	r15	
    4758:	30 41       	ret			

0000475a <CC2420ReceiveP__reset_state>:
    475a:	f2 40 80 ff d8 11 	mov.b	#-128,	&0x11d8	;#0xff80
    4760:	c2 43 06 12 	mov.b	#0,	&0x1206	;r3 As==00
    4764:	c2 43 a6 14 	mov.b	#0,	&0x14a6	;r3 As==00
    4768:	c2 43 a0 14 	mov.b	#0,	&0x14a0	;r3 As==00
    476c:	c2 43 fd 11 	mov.b	#0,	&0x11fd	;r3 As==00
    4770:	30 41       	ret			

00004772 <LocalIeeeEui64P__LocalIeeeEui64__getId>:
    4772:	0b 12       	push	r11		
    4774:	0a 12       	push	r10		
    4776:	09 12       	push	r9		
    4778:	08 12       	push	r8		
    477a:	c2 93 74 11 	tst.b	&0x1174	
    477e:	b0 20       	jnz	$+354    	;abs 0x48e0
    4780:	c2 93 72 11 	tst.b	&0x1172	
    4784:	82 20       	jnz	$+262    	;abs 0x488a
    4786:	b0 12 62 46 	call	#0x4662	
    478a:	f2 f0 ef ff 29 00 	and.b	#-17,	&0x0029	;#0xffef
    4790:	b0 12 6a 46 	call	#0x466a	
    4794:	3f 40 30 02 	mov	#560,	r15	;#0x0230
    4798:	b0 12 38 46 	call	#0x4638	
    479c:	b0 12 62 46 	call	#0x4662	
    47a0:	3f 40 3c 00 	mov	#60,	r15	;#0x003c
    47a4:	b0 12 38 46 	call	#0x4638	
    47a8:	0b 43       	clr	r11		
    47aa:	f2 b0 10 00 28 00 	bit.b	#16,	&0x0028	;#0x0010
    47b0:	09 24       	jz	$+20     	;abs 0x47c4
    47b2:	3b 50 05 00 	add	#5,	r11	;#0x0005
    47b6:	3f 40 05 00 	mov	#5,	r15	;#0x0005
    47ba:	b0 12 38 46 	call	#0x4638	
    47be:	3b 90 f0 00 	cmp	#240,	r11	;#0x00f0
    47c2:	f3 23       	jnz	$-24     	;abs 0x47aa
    47c4:	3f 40 a4 01 	mov	#420,	r15	;#0x01a4
    47c8:	b0 12 38 46 	call	#0x4638	
    47cc:	3b 90 f0 00 	cmp	#240,	r11	;#0x00f0
    47d0:	5e 2c       	jc	$+190    	;abs 0x488e
    47d2:	7a 42       	mov.b	#8,	r10	;r2 As==11
    47d4:	7b 40 33 00 	mov.b	#51,	r11	;#0x0033
    47d8:	1b b3       	bit	#1,	r11	;r3 As==01
    47da:	0b 24       	jz	$+24     	;abs 0x47f2
    47dc:	b0 12 6a 46 	call	#0x466a	
    47e0:	3f 40 05 00 	mov	#5,	r15	;#0x0005
    47e4:	b0 12 38 46 	call	#0x4638	
    47e8:	b0 12 62 46 	call	#0x4662	
    47ec:	3f 40 41 00 	mov	#65,	r15	;#0x0041
    47f0:	0a 3c       	jmp	$+22     	;abs 0x4806
    47f2:	b0 12 6a 46 	call	#0x466a	
    47f6:	3f 40 3c 00 	mov	#60,	r15	;#0x003c
    47fa:	b0 12 38 46 	call	#0x4638	
    47fe:	b0 12 62 46 	call	#0x4662	
    4802:	3f 40 05 00 	mov	#5,	r15	;#0x0005
    4806:	b0 12 38 46 	call	#0x4638	
    480a:	12 c3       	clrc			
    480c:	4b 10       	rrc.b	r11		
    480e:	7a 53       	add.b	#-1,	r10	;r3 As==11
    4810:	e3 23       	jnz	$-56     	;abs 0x47d8
    4812:	3a 40 2e 13 	mov	#4910,	r10	;#0x132e
    4816:	79 42       	mov.b	#8,	r9	;r2 As==11
    4818:	4b 43       	clr.b	r11		
    481a:	12 c3       	clrc			
    481c:	4b 10       	rrc.b	r11		
    481e:	b0 12 6a 46 	call	#0x466a	
    4822:	3f 40 05 00 	mov	#5,	r15	;#0x0005
    4826:	b0 12 38 46 	call	#0x4638	
    482a:	b0 12 62 46 	call	#0x4662	
    482e:	3f 40 05 00 	mov	#5,	r15	;#0x0005
    4832:	b0 12 38 46 	call	#0x4638	
    4836:	58 42 28 00 	mov.b	&0x0028,r8	
    483a:	3f 40 41 00 	mov	#65,	r15	;#0x0041
    483e:	b0 12 38 46 	call	#0x4638	
    4842:	78 b0 10 00 	bit.b	#16,	r8	;#0x0010
    4846:	02 24       	jz	$+6      	;abs 0x484c
    4848:	7b d0 80 ff 	bis.b	#-128,	r11	;#0xff80
    484c:	79 53       	add.b	#-1,	r9	;r3 As==11
    484e:	e5 23       	jnz	$-52     	;abs 0x481a
    4850:	ca 4b 00 00 	mov.b	r11,	0(r10)	;0x0000(r10)
    4854:	1a 53       	inc	r10		
    4856:	3a 90 36 13 	cmp	#4918,	r10	;#0x1336
    485a:	dd 23       	jnz	$-68     	;abs 0x4816
    485c:	0e 43       	clr	r14		
    485e:	4f 43       	clr.b	r15		
    4860:	5f ee 2e 13 	xor.b	4910(r14),r15	;0x132e(r14)
    4864:	7d 42       	mov.b	#8,	r13	;r2 As==11
    4866:	0c 4f       	mov	r15,	r12	
    4868:	1c f3       	and	#1,	r12	;r3 As==01
    486a:	12 c3       	clrc			
    486c:	4f 10       	rrc.b	r15		
    486e:	0c 93       	tst	r12		
    4870:	02 24       	jz	$+6      	;abs 0x4876
    4872:	7f e0 8c ff 	xor.b	#-116,	r15	;#0xff8c
    4876:	7d 53       	add.b	#-1,	r13	;r3 As==11
    4878:	f6 23       	jnz	$-18     	;abs 0x4866
    487a:	1e 53       	inc	r14		
    487c:	3e 92       	cmp	#8,	r14	;r2 As==11
    487e:	f0 23       	jnz	$-30     	;abs 0x4860
    4880:	4f 93       	tst.b	r15		
    4882:	07 20       	jnz	$+16     	;abs 0x4892
    4884:	d2 43 72 11 	mov.b	#1,	&0x1172	;r3 As==01
    4888:	06 3c       	jmp	$+14     	;abs 0x4896
    488a:	4f 43       	clr.b	r15		
    488c:	04 3c       	jmp	$+10     	;abs 0x4896
    488e:	6f 42       	mov.b	#4,	r15	;r2 As==10
    4890:	02 3c       	jmp	$+6      	;abs 0x4896
    4892:	7f 40 06 00 	mov.b	#6,	r15	;#0x0006
    4896:	c2 93 72 11 	tst.b	&0x1172	
    489a:	07 24       	jz	$+16     	;abs 0x48aa
    489c:	5e 42 2f 13 	mov.b	&0x132f,r14	
    48a0:	5d 42 30 13 	mov.b	&0x1330,r13	
    48a4:	5c 42 31 13 	mov.b	&0x1331,r12	
    48a8:	03 3c       	jmp	$+8      	;abs 0x48b0
    48aa:	4c 43       	clr.b	r12		
    48ac:	4d 43       	clr.b	r13		
    48ae:	4e 43       	clr.b	r14		
    48b0:	4f 93       	tst.b	r15		
    48b2:	16 20       	jnz	$+46     	;abs 0x48e0
    48b4:	c2 43 76 11 	mov.b	#0,	&0x1176	;r3 As==00
    48b8:	f2 40 12 00 77 11 	mov.b	#18,	&0x1177	;#0x0012
    48be:	f2 40 6d 00 78 11 	mov.b	#109,	&0x1178	;#0x006d
    48c4:	f2 40 45 00 79 11 	mov.b	#69,	&0x1179	;#0x0045
    48ca:	f2 40 50 00 7a 11 	mov.b	#80,	&0x117a	;#0x0050
    48d0:	c2 4c 7b 11 	mov.b	r12,	&0x117b	
    48d4:	c2 4d 7c 11 	mov.b	r13,	&0x117c	
    48d8:	c2 4e 7d 11 	mov.b	r14,	&0x117d	
    48dc:	d2 43 74 11 	mov.b	#1,	&0x1174	;r3 As==01
    48e0:	1c 42 76 11 	mov	&0x1176,r12	
    48e4:	1d 42 78 11 	mov	&0x1178,r13	
    48e8:	1e 42 7a 11 	mov	&0x117a,r14	
    48ec:	1f 42 7c 11 	mov	&0x117c,r15	
    48f0:	38 41       	pop	r8		
    48f2:	39 41       	pop	r9		
    48f4:	3a 41       	pop	r10		
    48f6:	3b 41       	pop	r11		
    48f8:	30 41       	ret			

000048fa <crcByte>:
    48fa:	0d 4f       	mov	r15,	r13	
    48fc:	8d 10       	swpb	r13		
    48fe:	4d 4d       	mov.b	r13,	r13	
    4900:	4f 4f       	mov.b	r15,	r15	
    4902:	8f 10       	swpb	r15		
    4904:	0d df       	bis	r15,	r13	
    4906:	4e 4e       	mov.b	r14,	r14	
    4908:	0d ee       	xor	r14,	r13	
    490a:	4f 4d       	mov.b	r13,	r15	
    490c:	12 c3       	clrc			
    490e:	4f 10       	rrc.b	r15		
    4910:	12 c3       	clrc			
    4912:	4f 10       	rrc.b	r15		
    4914:	12 c3       	clrc			
    4916:	4f 10       	rrc.b	r15		
    4918:	12 c3       	clrc			
    491a:	4f 10       	rrc.b	r15		
    491c:	4e 4f       	mov.b	r15,	r14	
    491e:	0e ed       	xor	r13,	r14	
    4920:	4f 4e       	mov.b	r14,	r15	
    4922:	8f 10       	swpb	r15		
    4924:	0f 5f       	rla	r15		
    4926:	0f 5f       	rla	r15		
    4928:	0f 5f       	rla	r15		
    492a:	0f 5f       	rla	r15		
    492c:	0f ee       	xor	r14,	r15	
    492e:	4e 4f       	mov.b	r15,	r14	
    4930:	0e 5e       	rla	r14		
    4932:	0e 5e       	rla	r14		
    4934:	0e 5e       	rla	r14		
    4936:	0e 5e       	rla	r14		
    4938:	0e 5e       	rla	r14		
    493a:	0f ee       	xor	r14,	r15	
    493c:	30 41       	ret			

0000493e <HplMsp430Usart0P__Usart__resetUsart>:
    493e:	4f 93       	tst.b	r15		
    4940:	03 24       	jz	$+8      	;abs 0x4948
    4942:	d2 43 70 00 	mov.b	#1,	&0x0070	;r3 As==01
    4946:	30 41       	ret			
    4948:	f2 f0 fe ff 70 00 	and.b	#-2,	&0x0070	;#0xfffe
    494e:	30 41       	ret			

00004950 <SchedulerBasicP__popTask.part.106>:
    4950:	5f 42 a1 14 	mov.b	&0x14a1,r15	
    4954:	4e 4f       	mov.b	r15,	r14	
    4956:	3e 50 dc 11 	add	#4572,	r14	;#0x11dc
    495a:	6d 4e       	mov.b	@r14,	r13	
    495c:	c2 4d a1 14 	mov.b	r13,	&0x14a1	
    4960:	7d 93       	cmp.b	#-1,	r13	;r3 As==11
    4962:	02 20       	jnz	$+6      	;abs 0x4968
    4964:	f2 43 17 15 	mov.b	#-1,	&0x1517	;r3 As==11
    4968:	fe 43 00 00 	mov.b	#-1,	0(r14)	;r3 As==11, 0x0000(r14)
    496c:	30 41       	ret			

0000496e <Msp430TimerP__0__Event__fired>:
    496e:	5f 93       	cmp.b	#1,	r15	;r3 As==01
    4970:	0c 24       	jz	$+26     	;abs 0x498a
    4972:	03 28       	jnc	$+8      	;abs 0x497a
    4974:	6f 93       	cmp.b	#2,	r15	;r3 As==10
    4976:	18 20       	jnz	$+50     	;abs 0x49a8
    4978:	10 3c       	jmp	$+34     	;abs 0x499a
    497a:	1f 42 62 01 	mov	&0x0162,r15	
    497e:	8f 10       	swpb	r15		
    4980:	5f f3       	and.b	#1,	r15	;r3 As==01
    4982:	12 24       	jz	$+38     	;abs 0x49a8
    4984:	1f 42 72 01 	mov	&0x0172,r15	
    4988:	30 41       	ret			
    498a:	1f 42 64 01 	mov	&0x0164,r15	
    498e:	8f 10       	swpb	r15		
    4990:	5f f3       	and.b	#1,	r15	;r3 As==01
    4992:	0a 24       	jz	$+22     	;abs 0x49a8
    4994:	1f 42 74 01 	mov	&0x0174,r15	
    4998:	30 41       	ret			
    499a:	1f 42 66 01 	mov	&0x0166,r15	
    499e:	8f 10       	swpb	r15		
    49a0:	5f f3       	and.b	#1,	r15	;r3 As==01
    49a2:	02 24       	jz	$+6      	;abs 0x49a8
    49a4:	1f 42 76 01 	mov	&0x0176,r15	
    49a8:	30 41       	ret			

000049aa <ArbiterP__0__ResourceConfigure__unconfigure.part.126>:
    49aa:	5f 43       	mov.b	#1,	r15	;r3 As==01
    49ac:	b0 12 3e 49 	call	#0x493e	
    49b0:	f2 f0 bf ff 04 00 	and.b	#-65,	&0x0004	;#0xffbf
    49b6:	3f 40 1b 00 	mov	#27,	r15	;#0x001b
    49ba:	ff f0 fd ff 00 00 	and.b	#-3,	0(r15)	;#0xfffd, 0x0000(r15)
    49c0:	ff f0 fb ff 00 00 	and.b	#-5,	0(r15)	;#0xfffb, 0x0000(r15)
    49c6:	ff f0 f7 ff 00 00 	and.b	#-9,	0(r15)	;#0xfff7, 0x0000(r15)
    49cc:	4f 43       	clr.b	r15		
    49ce:	b0 12 3e 49 	call	#0x493e	
    49d2:	30 41       	ret			

000049d4 <__nesc_atomic_start>:
    49d4:	0e 42       	mov	r2,	r14	
    49d6:	32 c2       	dint			
    49d8:	03 43       	nop			
    49da:	03 43       	nop			
    49dc:	3e f2       	and	#8,	r14	;r2 As==11
    49de:	5f 43       	mov.b	#1,	r15	;r3 As==01
    49e0:	01 20       	jnz	$+4      	;abs 0x49e4
    49e2:	4f 43       	clr.b	r15		
    49e4:	30 41       	ret			

000049e6 <__nesc_atomic_end>:
    49e6:	4f 93       	tst.b	r15		
    49e8:	01 24       	jz	$+4      	;abs 0x49ec
    49ea:	32 d2       	eint			
    49ec:	30 41       	ret			

000049ee <SchedulerBasicP__TaskBasic__postTask>:
    49ee:	0b 12       	push	r11		
    49f0:	4b 4f       	mov.b	r15,	r11	
    49f2:	b0 12 d4 49 	call	#0x49d4	
    49f6:	4e 4b       	mov.b	r11,	r14	
    49f8:	fe 93 dc 11 	cmp.b	#-1,	4572(r14);r3 As==11, 0x11dc(r14)
    49fc:	06 20       	jnz	$+14     	;abs 0x4a0a
    49fe:	1e 43       	mov	#1,	r14	;r3 As==01
    4a00:	c2 9b 17 15 	cmp.b	r11,	&0x1517	
    4a04:	03 24       	jz	$+8      	;abs 0x4a0c
    4a06:	0e 43       	clr	r14		
    4a08:	01 3c       	jmp	$+4      	;abs 0x4a0c
    4a0a:	1e 43       	mov	#1,	r14	;r3 As==01
    4a0c:	0e 93       	tst	r14		
    4a0e:	0e 20       	jnz	$+30     	;abs 0x4a2c
    4a10:	f2 93 a1 14 	cmp.b	#-1,	&0x14a1	;r3 As==11
    4a14:	03 20       	jnz	$+8      	;abs 0x4a1c
    4a16:	c2 4b a1 14 	mov.b	r11,	&0x14a1	
    4a1a:	04 3c       	jmp	$+10     	;abs 0x4a24
    4a1c:	5e 42 17 15 	mov.b	&0x1517,r14	
    4a20:	ce 4b dc 11 	mov.b	r11,	4572(r14);0x11dc(r14)
    4a24:	c2 4b 17 15 	mov.b	r11,	&0x1517	
    4a28:	4b 43       	clr.b	r11		
    4a2a:	02 3c       	jmp	$+6      	;abs 0x4a30
    4a2c:	7b 40 05 00 	mov.b	#5,	r11	;#0x0005
    4a30:	b0 12 e6 49 	call	#0x49e6	
    4a34:	4f 4b       	mov.b	r11,	r15	
    4a36:	3b 41       	pop	r11		
    4a38:	30 41       	ret			

00004a3a <SerialP__ReceiveBytePacket__endPacket>:
    4a3a:	c2 93 46 11 	tst.b	&0x1146	
    4a3e:	2c 20       	jnz	$+90     	;abs 0x4a98
    4a40:	4f 93       	tst.b	r15		
    4a42:	2a 20       	jnz	$+86     	;abs 0x4a98
    4a44:	d2 43 46 11 	mov.b	#1,	&0x1146	;r3 As==01
    4a48:	d2 42 12 11 44 11 	mov.b	&0x1112,&0x1144	
    4a4e:	d2 b3 58 11 	bit.b	#1,	&0x1158	;r3 As==01
    4a52:	0f 43       	clr	r15		
    4a54:	0f 6f       	rlc	r15		
    4a56:	c2 4f d9 11 	mov.b	r15,	&0x11d9	
    4a5a:	92 42 0c 11 42 11 	mov	&0x110c,&0x1142	
    4a60:	d2 42 56 11 40 11 	mov.b	&0x1156,&0x1140	
    4a66:	5e 42 58 11 	mov.b	&0x1158,r14	
    4a6a:	5e f3       	and.b	#1,	r14	;r3 As==01
    4a6c:	5f 43       	mov.b	#1,	r15	;r3 As==01
    4a6e:	01 24       	jz	$+4      	;abs 0x4a72
    4a70:	4f 43       	clr.b	r15		
    4a72:	5e 42 58 11 	mov.b	&0x1158,r14	
    4a76:	7e f0 fe ff 	and.b	#-2,	r14	;#0xfffe
    4a7a:	4e df       	bis.b	r15,	r14	
    4a7c:	1f f3       	and	#1,	r15	;r3 As==01
    4a7e:	0f 5f       	rla	r15		
    4a80:	92 4f 0e 11 0c 11 	mov	4366(r15),&0x110c	;0x110e(r15)
    4a86:	7e f0 e7 ff 	and.b	#-25,	r14	;#0xffe7
    4a8a:	c2 4e 58 11 	mov.b	r14,	&0x1158	
    4a8e:	7f 40 16 00 	mov.b	#22,	r15	;#0x0016
    4a92:	b0 12 ee 49 	call	#0x49ee	
    4a96:	30 41       	ret			
    4a98:	d2 b3 58 11 	bit.b	#1,	&0x1158	;r3 As==01
    4a9c:	0f 43       	clr	r15		
    4a9e:	0f 6f       	rlc	r15		
    4aa0:	5e 42 58 11 	mov.b	&0x1158,r14	
    4aa4:	4f 93       	tst.b	r15		
    4aa6:	03 24       	jz	$+8      	;abs 0x4aae
    4aa8:	7e f0 fb ff 	and.b	#-5,	r14	;#0xfffb
    4aac:	02 3c       	jmp	$+6      	;abs 0x4ab2
    4aae:	7e f0 fd ff 	and.b	#-3,	r14	;#0xfffd
    4ab2:	c2 4e 58 11 	mov.b	r14,	&0x1158	
    4ab6:	30 41       	ret			

00004ab8 <SerialP__testOff>:
    4ab8:	f2 90 0a 00 20 13 	cmp.b	#10,	&0x1320	;#0x000a
    4abe:	03 20       	jnz	$+8      	;abs 0x4ac6
    4ac0:	e2 92 07 12 	cmp.b	#4,	&0x1207	;r2 As==10
    4ac4:	03 24       	jz	$+8      	;abs 0x4acc
    4ac6:	d2 43 5a 11 	mov.b	#1,	&0x115a	;r3 As==01
    4aca:	30 41       	ret			
    4acc:	7f 40 13 00 	mov.b	#19,	r15	;#0x0013
    4ad0:	b0 12 ee 49 	call	#0x49ee	
    4ad4:	c2 43 5a 11 	mov.b	#0,	&0x115a	;r3 As==00
    4ad8:	30 41       	ret			

00004ada <ArbiterP__0__ResourceDefaultOwner__release>:
    4ada:	d2 93 20 11 	cmp.b	#1,	&0x1120	;r3 As==01
    4ade:	13 20       	jnz	$+40     	;abs 0x4b06
    4ae0:	5f 42 7e 11 	mov.b	&0x117e,r15	
    4ae4:	5f 93       	cmp.b	#1,	r15	;r3 As==01
    4ae6:	05 20       	jnz	$+12     	;abs 0x4af2
    4ae8:	7f 40 07 00 	mov.b	#7,	r15	;#0x0007
    4aec:	b0 12 ee 49 	call	#0x49ee	
    4af0:	08 3c       	jmp	$+18     	;abs 0x4b02
    4af2:	6f 93       	cmp.b	#2,	r15	;r3 As==10
    4af4:	0a 20       	jnz	$+22     	;abs 0x4b0a
    4af6:	d2 42 40 13 20 11 	mov.b	&0x1340,&0x1120	
    4afc:	f2 40 03 00 7e 11 	mov.b	#3,	&0x117e	;#0x0003
    4b02:	4f 43       	clr.b	r15		
    4b04:	30 41       	ret			
    4b06:	5f 43       	mov.b	#1,	r15	;r3 As==01
    4b08:	30 41       	ret			
    4b0a:	5f 43       	mov.b	#1,	r15	;r3 As==01
    4b0c:	30 41       	ret			

00004b0e <SerialP__MaybeScheduleTx>:
    4b0e:	0b 12       	push	r11		
    4b10:	b0 12 d4 49 	call	#0x49d4	
    4b14:	4b 4f       	mov.b	r15,	r11	
    4b16:	c2 93 12 15 	tst.b	&0x1512	
    4b1a:	08 20       	jnz	$+18     	;abs 0x4b2c
    4b1c:	7f 40 11 00 	mov.b	#17,	r15	;#0x0011
    4b20:	b0 12 ee 49 	call	#0x49ee	
    4b24:	4f 93       	tst.b	r15		
    4b26:	02 20       	jnz	$+6      	;abs 0x4b2c
    4b28:	d2 43 12 15 	mov.b	#1,	&0x1512	;r3 As==01
    4b2c:	4f 4b       	mov.b	r11,	r15	
    4b2e:	b0 12 e6 49 	call	#0x49e6	
    4b32:	3b 41       	pop	r11		
    4b34:	30 41       	ret			

00004b36 <SerialP__rx_state_machine>:
    4b36:	0b 12       	push	r11		
    4b38:	0a 12       	push	r10		
    4b3a:	4b 4f       	mov.b	r15,	r11	
    4b3c:	4a 4e       	mov.b	r14,	r10	
    4b3e:	5f 42 07 12 	mov.b	&0x1207,r15	
    4b42:	5f 93       	cmp.b	#1,	r15	;r3 As==01
    4b44:	0f 24       	jz	$+32     	;abs 0x4b64
    4b46:	06 28       	jnc	$+14     	;abs 0x4b54
    4b48:	6f 93       	cmp.b	#2,	r15	;r3 As==10
    4b4a:	40 24       	jz	$+130    	;abs 0x4bcc
    4b4c:	7f 90 03 00 	cmp.b	#3,	r15	;#0x0003
    4b50:	ef 20       	jnz	$+480    	;abs 0x4d30
    4b52:	4a 3c       	jmp	$+150    	;abs 0x4be8
    4b54:	4b 93       	tst.b	r11		
    4b56:	02 20       	jnz	$+6      	;abs 0x4b5c
    4b58:	30 40 70 4d 	br	#0x4d70	
    4b5c:	b0 12 1a 46 	call	#0x461a	
    4b60:	30 40 54 4d 	br	#0x4d54	
    4b64:	4b 93       	tst.b	r11		
    4b66:	02 24       	jz	$+6      	;abs 0x4b6c
    4b68:	30 40 70 4d 	br	#0x4d70	
    4b6c:	c2 4e 44 14 	mov.b	r14,	&0x1444	
    4b70:	4f 4e       	mov.b	r14,	r15	
    4b72:	7f 50 bc ff 	add.b	#-68,	r15	;#0xffbc
    4b76:	6f 93       	cmp.b	#2,	r15	;r3 As==10
    4b78:	db 2c       	jc	$+440    	;abs 0x4d30
    4b7a:	ef 3c       	jmp	$+480    	;abs 0x4d5a
    4b7c:	e2 43 07 12 	mov.b	#2,	&0x1207	;r3 As==10
    4b80:	03 3c       	jmp	$+8      	;abs 0x4b88
    4b82:	f2 40 03 00 07 12 	mov.b	#3,	&0x1207	;#0x0003
    4b88:	5d 42 58 11 	mov.b	&0x1158,r13	
    4b8c:	5d f3       	and.b	#1,	r13	;r3 As==01
    4b8e:	03 24       	jz	$+8      	;abs 0x4b96
    4b90:	e2 b2 58 11 	bit.b	#4,	&0x1158	;r2 As==10
    4b94:	02 3c       	jmp	$+6      	;abs 0x4b9a
    4b96:	e2 b3 58 11 	bit.b	#2,	&0x1158	;r3 As==10
    4b9a:	0e 43       	clr	r14		
    4b9c:	0e 6e       	rlc	r14		
    4b9e:	4e 93       	tst.b	r14		
    4ba0:	c7 20       	jnz	$+400    	;abs 0x4d30
    4ba2:	5f 42 58 11 	mov.b	&0x1158,r15	
    4ba6:	4d 93       	tst.b	r13		
    4ba8:	02 24       	jz	$+6      	;abs 0x4bae
    4baa:	6f d2       	bis.b	#4,	r15	;r2 As==10
    4bac:	01 3c       	jmp	$+4      	;abs 0x4bb0
    4bae:	6f d3       	bis.b	#2,	r15	;r3 As==10
    4bb0:	c2 4f 58 11 	mov.b	r15,	&0x1158	
    4bb4:	5f 42 58 11 	mov.b	&0x1158,r15	
    4bb8:	7f f0 e7 ff 	and.b	#-25,	r15	;#0xffe7
    4bbc:	7f d2       	bis.b	#8,	r15	;r2 As==11
    4bbe:	c2 4f 58 11 	mov.b	r15,	&0x1158	
    4bc2:	c2 43 56 11 	mov.b	#0,	&0x1156	;r3 As==00
    4bc6:	f2 43 12 11 	mov.b	#-1,	&0x1112	;r3 As==11
    4bca:	d2 3c       	jmp	$+422    	;abs 0x4d70
    4bcc:	4b 93       	tst.b	r11		
    4bce:	b0 20       	jnz	$+354    	;abs 0x4d30
    4bd0:	c2 4e 0a 12 	mov.b	r14,	&0x120a	
    4bd4:	1f 42 7c 12 	mov	&0x127c,r15	
    4bd8:	b0 12 fa 48 	call	#0x48fa	
    4bdc:	82 4f 7c 12 	mov	r15,	&0x127c	
    4be0:	f2 40 03 00 07 12 	mov.b	#3,	&0x1207	;#0x0003
    4be6:	c4 3c       	jmp	$+394    	;abs 0x4d70
    4be8:	5f 42 23 13 	mov.b	&0x1323,r15	
    4bec:	7f 93       	cmp.b	#-1,	r15	;r3 As==11
    4bee:	a0 24       	jz	$+322    	;abs 0x4d30
    4bf0:	4b 93       	tst.b	r11		
    4bf2:	45 24       	jz	$+140    	;abs 0x4c7e
    4bf4:	6f 93       	cmp.b	#2,	r15	;r3 As==10
    4bf6:	9c 28       	jnc	$+314    	;abs 0x4d30
    4bf8:	5f 42 3e 14 	mov.b	&0x143e,r15	
    4bfc:	4f 93       	tst.b	r15		
    4bfe:	02 24       	jz	$+6      	;abs 0x4c04
    4c00:	7f 53       	add.b	#-1,	r15	;r3 As==11
    4c02:	01 3c       	jmp	$+4      	;abs 0x4c06
    4c04:	6f 43       	mov.b	#2,	r15	;r3 As==10
    4c06:	4e 4f       	mov.b	r15,	r14	
    4c08:	5e 4e 40 14 	mov.b	5184(r14),r14	;0x1440(r14)
    4c0c:	8e 10       	swpb	r14		
    4c0e:	4f 93       	tst.b	r15		
    4c10:	02 24       	jz	$+6      	;abs 0x4c16
    4c12:	7f 53       	add.b	#-1,	r15	;r3 As==11
    4c14:	01 3c       	jmp	$+4      	;abs 0x4c18
    4c16:	6f 43       	mov.b	#2,	r15	;r3 As==10
    4c18:	4f 4f       	mov.b	r15,	r15	
    4c1a:	5f 4f 40 14 	mov.b	5184(r15),r15	;0x1440(r15)
    4c1e:	0f de       	bis	r14,	r15	
    4c20:	1f 92 7c 12 	cmp	&0x127c,r15	
    4c24:	85 20       	jnz	$+268    	;abs 0x4d30
    4c26:	4f 43       	clr.b	r15		
    4c28:	b0 12 3a 4a 	call	#0x4a3a	
    4c2c:	f2 90 44 00 44 14 	cmp.b	#68,	&0x1444	;#0x0044
    4c32:	1c 20       	jnz	$+58     	;abs 0x4c6c
    4c34:	5c 42 0a 12 	mov.b	&0x120a,r12	
    4c38:	5e 42 70 12 	mov.b	&0x1270,r14	
    4c3c:	5b 42 71 12 	mov.b	&0x1271,r11	
    4c40:	4f 4e       	mov.b	r14,	r15	
    4c42:	5f 53       	inc.b	r15		
    4c44:	7f 90 06 00 	cmp.b	#6,	r15	;#0x0006
    4c48:	02 2c       	jc	$+6      	;abs 0x4c4e
    4c4a:	4d 4f       	mov.b	r15,	r13	
    4c4c:	01 3c       	jmp	$+4      	;abs 0x4c50
    4c4e:	4d 43       	clr.b	r13		
    4c50:	4d 9b       	cmp.b	r11,	r13	
    4c52:	0c 24       	jz	$+26     	;abs 0x4c6c
    4c54:	4e 4e       	mov.b	r14,	r14	
    4c56:	ce 4c 72 12 	mov.b	r12,	4722(r14);0x1272(r14)
    4c5a:	c2 4f 70 12 	mov.b	r15,	&0x1270	
    4c5e:	7f 90 06 00 	cmp.b	#6,	r15	;#0x0006
    4c62:	02 28       	jnc	$+6      	;abs 0x4c68
    4c64:	c2 43 70 12 	mov.b	#0,	&0x1270	;r3 As==00
    4c68:	b0 12 0e 4b 	call	#0x4b0e	
    4c6c:	b0 12 1a 46 	call	#0x461a	
    4c70:	f2 f0 fd ff 3e 11 	and.b	#-3,	&0x113e	;#0xfffd
    4c76:	c2 93 5a 11 	tst.b	&0x115a	
    4c7a:	7a 24       	jz	$+246    	;abs 0x4d70
    4c7c:	64 3c       	jmp	$+202    	;abs 0x4d46
    4c7e:	6f 93       	cmp.b	#2,	r15	;r3 As==10
    4c80:	46 28       	jnc	$+142    	;abs 0x4d0e
    4c82:	5f 42 3f 14 	mov.b	&0x143f,r15	
    4c86:	5e 4f 40 14 	mov.b	5184(r15),r14	;0x1440(r15)
    4c8a:	5f 42 58 11 	mov.b	&0x1158,r15	
    4c8e:	12 c3       	clrc			
    4c90:	4f 10       	rrc.b	r15		
    4c92:	12 c3       	clrc			
    4c94:	4f 10       	rrc.b	r15		
    4c96:	12 c3       	clrc			
    4c98:	4f 10       	rrc.b	r15		
    4c9a:	3f f0 03 00 	and	#3,	r15	;#0x0003
    4c9e:	1f 93       	cmp	#1,	r15	;r3 As==01
    4ca0:	03 24       	jz	$+8      	;abs 0x4ca8
    4ca2:	2f 93       	cmp	#2,	r15	;r3 As==10
    4ca4:	20 20       	jnz	$+66     	;abs 0x4ce6
    4ca6:	13 3c       	jmp	$+40     	;abs 0x4cce
    4ca8:	5f 42 58 11 	mov.b	&0x1158,r15	
    4cac:	7f f0 e7 ff 	and.b	#-25,	r15	;#0xffe7
    4cb0:	7f d0 10 00 	bis.b	#16,	r15	;#0x0010
    4cb4:	c2 4f 58 11 	mov.b	r15,	&0x1158	
    4cb8:	4e 93       	tst.b	r14		
    4cba:	02 24       	jz	$+6      	;abs 0x4cc0
    4cbc:	4f 43       	clr.b	r15		
    4cbe:	02 3c       	jmp	$+6      	;abs 0x4cc4
    4cc0:	7f 40 05 00 	mov.b	#5,	r15	;#0x0005
    4cc4:	c2 4f 56 11 	mov.b	r15,	&0x1156	
    4cc8:	c2 4e 12 11 	mov.b	r14,	&0x1112	
    4ccc:	0c 3c       	jmp	$+26     	;abs 0x4ce6
    4cce:	5f 42 56 11 	mov.b	&0x1156,r15	
    4cd2:	7f 90 34 00 	cmp.b	#52,	r15	;#0x0034
    4cd6:	07 2c       	jc	$+16     	;abs 0x4ce6
    4cd8:	4f 4f       	mov.b	r15,	r15	
    4cda:	1f 52 0c 11 	add	&0x110c,r15	
    4cde:	cf 4e 00 00 	mov.b	r14,	0(r15)	;0x0000(r15)
    4ce2:	d2 53 56 11 	inc.b	&0x1156	
    4ce6:	5d 42 3f 14 	mov.b	&0x143f,r13	
    4cea:	4f 4d       	mov.b	r13,	r15	
    4cec:	5e 4f 40 14 	mov.b	5184(r15),r14	;0x1440(r15)
    4cf0:	4f 4d       	mov.b	r13,	r15	
    4cf2:	5f 53       	inc.b	r15		
    4cf4:	c2 4f 3f 14 	mov.b	r15,	&0x143f	
    4cf8:	7f 90 03 00 	cmp.b	#3,	r15	;#0x0003
    4cfc:	02 28       	jnc	$+6      	;abs 0x4d02
    4cfe:	c2 43 3f 14 	mov.b	#0,	&0x143f	;r3 As==00
    4d02:	1f 42 7c 12 	mov	&0x127c,r15	
    4d06:	b0 12 fa 48 	call	#0x48fa	
    4d0a:	82 4f 7c 12 	mov	r15,	&0x127c	
    4d0e:	5e 42 3e 14 	mov.b	&0x143e,r14	
    4d12:	4f 4e       	mov.b	r14,	r15	
    4d14:	cf 4a 40 14 	mov.b	r10,	5184(r15);0x1440(r15)
    4d18:	4f 4e       	mov.b	r14,	r15	
    4d1a:	5f 53       	inc.b	r15		
    4d1c:	c2 4f 3e 14 	mov.b	r15,	&0x143e	
    4d20:	7f 90 03 00 	cmp.b	#3,	r15	;#0x0003
    4d24:	02 28       	jnc	$+6      	;abs 0x4d2a
    4d26:	c2 43 3e 14 	mov.b	#0,	&0x143e	;r3 As==00
    4d2a:	d2 53 23 13 	inc.b	&0x1323	
    4d2e:	20 3c       	jmp	$+66     	;abs 0x4d70
    4d30:	b0 12 1a 46 	call	#0x461a	
    4d34:	f2 f0 fd ff 3e 11 	and.b	#-3,	&0x113e	;#0xfffd
    4d3a:	5f 43       	mov.b	#1,	r15	;r3 As==01
    4d3c:	b0 12 3a 4a 	call	#0x4a3a	
    4d40:	c2 93 5a 11 	tst.b	&0x115a	
    4d44:	05 24       	jz	$+12     	;abs 0x4d50
    4d46:	e2 42 07 12 	mov.b	#4,	&0x1207	;r2 As==10
    4d4a:	b0 12 b8 4a 	call	#0x4ab8	
    4d4e:	10 3c       	jmp	$+34     	;abs 0x4d70
    4d50:	4b 93       	tst.b	r11		
    4d52:	0e 24       	jz	$+30     	;abs 0x4d70
    4d54:	d2 43 07 12 	mov.b	#1,	&0x1207	;r3 As==01
    4d58:	0b 3c       	jmp	$+24     	;abs 0x4d70
    4d5a:	1f 42 7c 12 	mov	&0x127c,r15	
    4d5e:	b0 12 fa 48 	call	#0x48fa	
    4d62:	82 4f 7c 12 	mov	r15,	&0x127c	
    4d66:	7a 90 44 00 	cmp.b	#68,	r10	;#0x0044
    4d6a:	0b 23       	jnz	$-488    	;abs 0x4b82
    4d6c:	30 40 7c 4b 	br	#0x4b7c	
    4d70:	3a 41       	pop	r10		
    4d72:	3b 41       	pop	r11		
    4d74:	30 41       	ret			

00004d76 <SerialActiveMessageP__0__AMSend__send>:
    4d76:	0b 12       	push	r11		
    4d78:	0a 12       	push	r10		
    4d7a:	0b 4d       	mov	r13,	r11	
    4d7c:	4a 4c       	mov.b	r12,	r10	
    4d7e:	7c 90 1d 00 	cmp.b	#29,	r12	;#0x001d
    4d82:	44 2c       	jc	$+138    	;abs 0x4e0c
    4d84:	cd 4e 06 00 	mov.b	r14,	6(r13)	;0x0006(r13)
    4d88:	8e 10       	swpb	r14		
    4d8a:	cd 4e 05 00 	mov.b	r14,	5(r13)	;0x0005(r13)
    4d8e:	cd 4f 0b 00 	mov.b	r15,	11(r13)	;0x000b(r13)
    4d92:	cb 4c 09 00 	mov.b	r12,	9(r11)	;0x0009(r11)
    4d96:	82 93 52 11 	tst	&0x1152	
    4d9a:	3a 20       	jnz	$+118    	;abs 0x4e10
    4d9c:	b0 12 d4 49 	call	#0x49d4	
    4da0:	f2 40 05 00 4e 11 	mov.b	#5,	&0x114e	;#0x0005
    4da6:	c2 43 4c 11 	mov.b	#0,	&0x114c	;r3 As==00
    4daa:	82 4b 54 11 	mov	r11,	&0x1154	
    4dae:	a2 43 52 11 	mov	#2,	&0x1152	;r3 As==10
    4db2:	c2 43 48 11 	mov.b	#0,	&0x1148	;r3 As==00
    4db6:	c2 43 4a 11 	mov.b	#0,	&0x114a	;r3 As==00
    4dba:	7a 50 0c 00 	add.b	#12,	r10	;#0x000c
    4dbe:	c2 4a 50 11 	mov.b	r10,	&0x1150	
    4dc2:	b0 12 e6 49 	call	#0x49e6	
    4dc6:	b0 12 d4 49 	call	#0x49d4	
    4dca:	f2 90 0a 00 20 13 	cmp.b	#10,	&0x1320	;#0x000a
    4dd0:	03 20       	jnz	$+8      	;abs 0x4dd8
    4dd2:	b0 12 e6 49 	call	#0x49e6	
    4dd6:	16 3c       	jmp	$+46     	;abs 0x4e04
    4dd8:	b0 12 e6 49 	call	#0x49e6	
    4ddc:	b0 12 d4 49 	call	#0x49d4	
    4de0:	c2 93 6a 12 	tst.b	&0x126a	
    4de4:	06 20       	jnz	$+14     	;abs 0x4df2
    4de6:	d2 43 6a 12 	mov.b	#1,	&0x126a	;r3 As==01
    4dea:	c2 43 6b 12 	mov.b	#0,	&0x126b	;r3 As==00
    4dee:	5b 43       	mov.b	#1,	r11	;r3 As==01
    4df0:	01 3c       	jmp	$+4      	;abs 0x4df4
    4df2:	4b 43       	clr.b	r11		
    4df4:	b0 12 e6 49 	call	#0x49e6	
    4df8:	4b 93       	tst.b	r11		
    4dfa:	04 24       	jz	$+10     	;abs 0x4e04
    4dfc:	b0 12 0e 4b 	call	#0x4b0e	
    4e00:	4f 43       	clr.b	r15		
    4e02:	08 3c       	jmp	$+18     	;abs 0x4e14
    4e04:	82 43 52 11 	mov	#0,	&0x1152	;r3 As==00
    4e08:	5f 43       	mov.b	#1,	r15	;r3 As==01
    4e0a:	04 3c       	jmp	$+10     	;abs 0x4e14
    4e0c:	6f 43       	mov.b	#2,	r15	;r3 As==10
    4e0e:	02 3c       	jmp	$+6      	;abs 0x4e14
    4e10:	7f 40 05 00 	mov.b	#5,	r15	;#0x0005
    4e14:	3a 41       	pop	r10		
    4e16:	3b 41       	pop	r11		
    4e18:	30 41       	ret			

00004e1a <AMQueueImplP__1__tryToSend>:
    4e1a:	c2 43 13 11 	mov.b	#0,	&0x1113	;r3 As==00
    4e1e:	1d 42 6a 14 	mov	&0x146a,r13	
    4e22:	0d 93       	tst	r13		
    4e24:	04 24       	jz	$+10     	;abs 0x4e2e
    4e26:	5f 42 48 12 	mov.b	&0x1248,r15	
    4e2a:	1f f3       	and	#1,	r15	;r3 As==01
    4e2c:	02 24       	jz	$+6      	;abs 0x4e32
    4e2e:	d2 43 13 11 	mov.b	#1,	&0x1113	;r3 As==01
    4e32:	c2 93 13 11 	tst.b	&0x1113	
    4e36:	12 20       	jnz	$+38     	;abs 0x4e5c
    4e38:	5f 4d 05 00 	mov.b	5(r13),	r15	;0x0005(r13)
    4e3c:	8f 10       	swpb	r15		
    4e3e:	5e 4d 06 00 	mov.b	6(r13),	r14	;0x0006(r13)
    4e42:	5c 4d 09 00 	mov.b	9(r13),	r12	;0x0009(r13)
    4e46:	0e df       	bis	r15,	r14	
    4e48:	5f 4d 0b 00 	mov.b	11(r13),r15	;0x000b(r13)
    4e4c:	b0 12 76 4d 	call	#0x4d76	
    4e50:	4f 93       	tst.b	r15		
    4e52:	04 24       	jz	$+10     	;abs 0x4e5c
    4e54:	7f 40 10 00 	mov.b	#16,	r15	;#0x0010
    4e58:	b0 12 ee 49 	call	#0x49ee	
    4e5c:	30 41       	ret			

00004e5e <PrintfP__AMSend__send.part.135.constprop.188>:
    4e5e:	5f 42 e3 14 	mov.b	&0x14e3,r15	
    4e62:	8f 10       	swpb	r15		
    4e64:	5e 42 e4 14 	mov.b	&0x14e4,r14	
    4e68:	c2 43 13 11 	mov.b	#0,	&0x1113	;r3 As==00
    4e6c:	7c 40 1c 00 	mov.b	#28,	r12	;#0x001c
    4e70:	3d 40 de 14 	mov	#5342,	r13	;#0x14de
    4e74:	0e df       	bis	r15,	r14	
    4e76:	5f 42 e9 14 	mov.b	&0x14e9,r15	
    4e7a:	b0 12 76 4d 	call	#0x4d76	
    4e7e:	4f 93       	tst.b	r15		
    4e80:	04 24       	jz	$+10     	;abs 0x4e8a
    4e82:	d2 43 13 11 	mov.b	#1,	&0x1113	;r3 As==01
    4e86:	82 43 6a 14 	mov	#0,	&0x146a	;r3 As==00
    4e8a:	30 41       	ret			

00004e8c <PrintfP__sendNext>:
    4e8c:	0b 12       	push	r11		
    4e8e:	5b 42 36 11 	mov.b	&0x1136,r11	
    4e92:	7b 90 1c 00 	cmp.b	#28,	r11	;#0x001c
    4e96:	02 2c       	jc	$+6      	;abs 0x4e9c
    4e98:	4b 4b       	mov.b	r11,	r11	
    4e9a:	02 3c       	jmp	$+6      	;abs 0x4ea0
    4e9c:	3b 40 1c 00 	mov	#28,	r11	;#0x001c
    4ea0:	3d 40 1c 00 	mov	#28,	r13	;#0x001c
    4ea4:	0e 43       	clr	r14		
    4ea6:	3f 40 ea 14 	mov	#5354,	r15	;#0x14ea
    4eaa:	b0 12 d4 7b 	call	#0x7bd4	
    4eae:	5f 42 3a 11 	mov.b	&0x113a,r15	
    4eb2:	5d 42 36 11 	mov.b	&0x1136,r13	
    4eb6:	0e 43       	clr	r14		
    4eb8:	0e 3c       	jmp	$+30     	;abs 0x4ed6
    4eba:	4c 4f       	mov.b	r15,	r12	
    4ebc:	5c 4c 44 13 	mov.b	4932(r12),r12	;0x1344(r12)
    4ec0:	4d 93       	tst.b	r13		
    4ec2:	06 24       	jz	$+14     	;abs 0x4ed0
    4ec4:	5f 53       	inc.b	r15		
    4ec6:	7f 90 fa ff 	cmp.b	#-6,	r15	;#0xfffa
    4eca:	01 20       	jnz	$+4      	;abs 0x4ece
    4ecc:	4f 43       	clr.b	r15		
    4ece:	7d 53       	add.b	#-1,	r13	;r3 As==11
    4ed0:	ce 4c ea 14 	mov.b	r12,	5354(r14);0x14ea(r14)
    4ed4:	1e 53       	inc	r14		
    4ed6:	0e 9b       	cmp	r11,	r14	
    4ed8:	f0 23       	jnz	$-30     	;abs 0x4eba
    4eda:	c2 4f 3a 11 	mov.b	r15,	&0x113a	
    4ede:	c2 4d 36 11 	mov.b	r13,	&0x1136	
    4ee2:	f2 43 e4 14 	mov.b	#-1,	&0x14e4	;r3 As==11
    4ee6:	f2 43 e3 14 	mov.b	#-1,	&0x14e3	;r3 As==11
    4eea:	f2 40 64 00 e9 14 	mov.b	#100,	&0x14e9	;#0x0064
    4ef0:	82 93 6a 14 	tst	&0x146a	
    4ef4:	0d 20       	jnz	$+28     	;abs 0x4f10
    4ef6:	b2 40 de 14 6a 14 	mov	#5342,	&0x146a	;#0x14de
    4efc:	f2 40 1c 00 e7 14 	mov.b	#28,	&0x14e7	;#0x001c
    4f02:	c2 93 13 11 	tst.b	&0x1113	
    4f06:	08 24       	jz	$+18     	;abs 0x4f18
    4f08:	b0 12 5e 4e 	call	#0x4e5e	
    4f0c:	4f 93       	tst.b	r15		
    4f0e:	04 24       	jz	$+10     	;abs 0x4f18
    4f10:	7f 40 18 00 	mov.b	#24,	r15	;#0x0018
    4f14:	b0 12 ee 49 	call	#0x49ee	
    4f18:	3b 41       	pop	r11		
    4f1a:	30 41       	ret			

00004f1c <AMQueueImplP__1__Send__sendDone.isra.139>:
    4f1c:	4f 93       	tst.b	r15		
    4f1e:	0f 20       	jnz	$+32     	;abs 0x4f3e
    4f20:	4e 93       	tst.b	r14		
    4f22:	09 20       	jnz	$+20     	;abs 0x4f36
    4f24:	c2 93 36 11 	tst.b	&0x1136	
    4f28:	03 24       	jz	$+8      	;abs 0x4f30
    4f2a:	b0 12 8c 4e 	call	#0x4e8c	
    4f2e:	30 41       	ret			
    4f30:	c2 43 34 11 	mov.b	#0,	&0x1134	;r3 As==00
    4f34:	30 41       	ret			
    4f36:	7f 40 18 00 	mov.b	#24,	r15	;#0x0018
    4f3a:	b0 12 ee 49 	call	#0x49ee	
    4f3e:	30 41       	ret			

00004f40 <Msp430UartP__0__UsartResource__isOwner.part.147>:
    4f40:	b0 12 d4 49 	call	#0x49d4	
    4f44:	4e 4f       	mov.b	r15,	r14	
    4f46:	c2 93 08 11 	tst.b	&0x1108	
    4f4a:	08 20       	jnz	$+18     	;abs 0x4f5c
    4f4c:	f2 90 03 00 3c 11 	cmp.b	#3,	&0x113c	;#0x0003
    4f52:	04 20       	jnz	$+10     	;abs 0x4f5c
    4f54:	b0 12 e6 49 	call	#0x49e6	
    4f58:	5f 43       	mov.b	#1,	r15	;r3 As==01
    4f5a:	30 41       	ret			
    4f5c:	4f 4e       	mov.b	r14,	r15	
    4f5e:	b0 12 e6 49 	call	#0x49e6	
    4f62:	4f 43       	clr.b	r15		
    4f64:	30 41       	ret			

00004f66 <HdlcTranslateC__UartStream__send.constprop.189>:
    4f66:	b0 12 40 4f 	call	#0x4f40	
    4f6a:	4f 93       	tst.b	r15		
    4f6c:	11 24       	jz	$+36     	;abs 0x4f90
    4f6e:	82 93 da 14 	tst	&0x14da	
    4f72:	10 20       	jnz	$+34     	;abs 0x4f94
    4f74:	b2 40 f9 11 da 14 	mov	#4601,	&0x14da	;#0x11f9
    4f7a:	92 43 24 13 	mov	#1,	&0x1324	;r3 As==01
    4f7e:	c2 43 8a 11 	mov.b	#0,	&0x118a	;r3 As==00
    4f82:	92 43 10 12 	mov	#1,	&0x1210	;r3 As==01
    4f86:	d2 42 f9 11 7f 00 	mov.b	&0x11f9,&0x007f	
    4f8c:	4f 43       	clr.b	r15		
    4f8e:	30 41       	ret			
    4f90:	5f 43       	mov.b	#1,	r15	;r3 As==01
    4f92:	30 41       	ret			
    4f94:	7f 40 05 00 	mov.b	#5,	r15	;#0x0005
    4f98:	30 41       	ret			

00004f9a <SerialP__SerialFrameComm__putData>:
    4f9a:	4e 4f       	mov.b	r15,	r14	
    4f9c:	7e 50 83 ff 	add.b	#-125,	r14	;#0xff83
    4fa0:	6e 93       	cmp.b	#2,	r14	;r3 As==10
    4fa2:	0a 2c       	jc	$+22     	;abs 0x4fb8
    4fa4:	d2 d3 3e 11 	bis.b	#1,	&0x113e	;r3 As==01
    4fa8:	7f e0 20 00 	xor.b	#32,	r15	;#0x0020
    4fac:	c2 4f 22 13 	mov.b	r15,	&0x1322	
    4fb0:	f2 40 7d 00 f9 11 	mov.b	#125,	&0x11f9	;#0x007d
    4fb6:	02 3c       	jmp	$+6      	;abs 0x4fbc
    4fb8:	c2 4f f9 11 	mov.b	r15,	&0x11f9	
    4fbc:	b0 12 66 4f 	call	#0x4f66	
    4fc0:	30 41       	ret			

00004fc2 <SerialP__SerialFrameComm__putDelimiter>:
    4fc2:	b0 12 d4 49 	call	#0x49d4	
    4fc6:	f2 f0 fe ff 3e 11 	and.b	#-2,	&0x113e	;#0xfffe
    4fcc:	f2 40 7e 00 f9 11 	mov.b	#126,	&0x11f9	;#0x007e
    4fd2:	b0 12 e6 49 	call	#0x49e6	
    4fd6:	b0 12 66 4f 	call	#0x4f66	
    4fda:	30 41       	ret			

00004fdc <HdlcTranslateC__UartStream__sendDone.isra.149>:
    4fdc:	0b 12       	push	r11		
    4fde:	0a 12       	push	r10		
    4fe0:	09 12       	push	r9		
    4fe2:	d2 b3 3e 11 	bit.b	#1,	&0x113e	;r3 As==01
    4fe6:	09 24       	jz	$+20     	;abs 0x4ffa
    4fe8:	f2 f0 fe ff 3e 11 	and.b	#-2,	&0x113e	;#0xfffe
    4fee:	d2 42 22 13 f9 11 	mov.b	&0x1322,&0x11f9	
    4ff4:	b0 12 66 4f 	call	#0x4f66	
    4ff8:	87 3c       	jmp	$+272    	;abs 0x5108
    4ffa:	5f 42 20 13 	mov.b	&0x1320,r15	
    4ffe:	7f 53       	add.b	#-1,	r15	;r3 As==11
    5000:	7f 92       	cmp.b	#8,	r15	;r2 As==11
    5002:	7d 2c       	jc	$+252    	;abs 0x50fe
    5004:	4f 4f       	mov.b	r15,	r15	
    5006:	0f 5f       	rla	r15		
    5008:	10 4f c4 85 	br	-31292(r15)	;0x85c4(r15)
    500c:	5f 42 5b 12 	mov.b	&0x125b,r15	
    5010:	b0 12 9a 4f 	call	#0x4f9a	
    5014:	4b 4f       	mov.b	r15,	r11	
    5016:	f2 40 03 00 20 13 	mov.b	#3,	&0x1320	;#0x0003
    501c:	5e 42 5b 12 	mov.b	&0x125b,r14	
    5020:	0a 3c       	jmp	$+22     	;abs 0x5036
    5022:	5f 42 a2 14 	mov.b	&0x14a2,r15	
    5026:	b0 12 9a 4f 	call	#0x4f9a	
    502a:	4b 4f       	mov.b	r15,	r11	
    502c:	f2 40 03 00 20 13 	mov.b	#3,	&0x1320	;#0x0003
    5032:	5e 42 a2 14 	mov.b	&0x14a2,r14	
    5036:	1f 42 1a 15 	mov	&0x151a,r15	
    503a:	b0 12 fa 48 	call	#0x48fa	
    503e:	82 4f 1a 15 	mov	r15,	&0x151a	
    5042:	5b 3c       	jmp	$+184    	;abs 0x50fa
    5044:	5f 42 7e 12 	mov.b	&0x127e,r15	
    5048:	0f 5f       	rla	r15		
    504a:	3f 50 68 12 	add	#4712,	r15	;#0x1268
    504e:	5f 4f 01 00 	mov.b	1(r15),	r15	;0x0001(r15)
    5052:	b0 12 9a 4f 	call	#0x4f9a	
    5056:	4b 4f       	mov.b	r15,	r11	
    5058:	59 42 7e 12 	mov.b	&0x127e,r9	
    505c:	4a 49       	mov.b	r9,	r10	
    505e:	0d 4a       	mov	r10,	r13	
    5060:	0d 5d       	rla	r13		
    5062:	3d 50 68 12 	add	#4712,	r13	;#0x1268
    5066:	5e 4d 01 00 	mov.b	1(r13),	r14	;0x0001(r13)
    506a:	1f 42 1a 15 	mov	&0x151a,r15	
    506e:	b0 12 fa 48 	call	#0x48fa	
    5072:	82 4f 1a 15 	mov	r15,	&0x151a	
    5076:	5d 42 49 12 	mov.b	&0x1249,r13	
    507a:	5d 53       	inc.b	r13		
    507c:	c2 4d 49 12 	mov.b	r13,	&0x1249	
    5080:	59 93       	cmp.b	#1,	r9	;r3 As==01
    5082:	1b 20       	jnz	$+56     	;abs 0x50ba
    5084:	5e 42 4e 11 	mov.b	&0x114e,r14	
    5088:	4f 4e       	mov.b	r14,	r15	
    508a:	1f 52 54 11 	add	&0x1154,r15	
    508e:	6f 4f       	mov.b	@r15,	r15	
    5090:	5e 53       	inc.b	r14		
    5092:	c2 4e 4e 11 	mov.b	r14,	&0x114e	
    5096:	c2 9e 50 11 	cmp.b	r14,	&0x1150	
    509a:	03 2c       	jc	$+8      	;abs 0x50a2
    509c:	e2 43 6a 12 	mov.b	#2,	&0x126a	;r3 As==10
    50a0:	4f 43       	clr.b	r15		
    50a2:	0e 4a       	mov	r10,	r14	
    50a4:	0e 5e       	rla	r14		
    50a6:	3e 50 68 12 	add	#4712,	r14	;#0x1268
    50aa:	ee 93 00 00 	cmp.b	#2,	0(r14)	;r3 As==10, 0x0000(r14)
    50ae:	05 24       	jz	$+12     	;abs 0x50ba
    50b0:	7d 93       	cmp.b	#-1,	r13	;r3 As==11
    50b2:	03 24       	jz	$+8      	;abs 0x50ba
    50b4:	ce 4f 01 00 	mov.b	r15,	1(r14)	;0x0001(r14)
    50b8:	20 3c       	jmp	$+66     	;abs 0x50fa
    50ba:	e2 42 20 13 	mov.b	#4,	&0x1320	;r2 As==10
    50be:	1d 3c       	jmp	$+60     	;abs 0x50fa
    50c0:	5f 42 1a 15 	mov.b	&0x151a,r15	
    50c4:	b0 12 9a 4f 	call	#0x4f9a	
    50c8:	4b 4f       	mov.b	r15,	r11	
    50ca:	f2 40 05 00 20 13 	mov.b	#5,	&0x1320	;#0x0005
    50d0:	14 3c       	jmp	$+42     	;abs 0x50fa
    50d2:	1f 42 1a 15 	mov	&0x151a,r15	
    50d6:	8f 10       	swpb	r15		
    50d8:	b0 12 9a 4f 	call	#0x4f9a	
    50dc:	4b 4f       	mov.b	r15,	r11	
    50de:	f2 40 06 00 20 13 	mov.b	#6,	&0x1320	;#0x0006
    50e4:	0a 3c       	jmp	$+22     	;abs 0x50fa
    50e6:	b0 12 c2 4f 	call	#0x4fc2	
    50ea:	4b 4f       	mov.b	r15,	r11	
    50ec:	f2 40 07 00 20 13 	mov.b	#7,	&0x1320	;#0x0007
    50f2:	03 3c       	jmp	$+8      	;abs 0x50fa
    50f4:	f2 42 20 13 	mov.b	#8,	&0x1320	;r2 As==11
    50f8:	05 3c       	jmp	$+12     	;abs 0x5104
    50fa:	4b 93       	tst.b	r11		
    50fc:	05 24       	jz	$+12     	;abs 0x5108
    50fe:	f2 40 09 00 20 13 	mov.b	#9,	&0x1320	;#0x0009
    5104:	b0 12 0e 4b 	call	#0x4b0e	
    5108:	39 41       	pop	r9		
    510a:	3a 41       	pop	r10		
    510c:	3b 41       	pop	r11		
    510e:	30 41       	ret			

00005110 <Msp430SpiNoDmaP__0__continueOp>:
    5110:	0b 12       	push	r11		
    5112:	b0 12 d4 49 	call	#0x49d4	
    5116:	1d 42 46 12 	mov	&0x1246,r13	
    511a:	1e 42 a4 14 	mov	&0x14a4,r14	
    511e:	0d 93       	tst	r13		
    5120:	03 24       	jz	$+8      	;abs 0x5128
    5122:	0d 5e       	add	r14,	r13	
    5124:	6d 4d       	mov.b	@r13,	r13	
    5126:	01 3c       	jmp	$+4      	;abs 0x512a
    5128:	4d 43       	clr.b	r13		
    512a:	c2 4d 77 00 	mov.b	r13,	&0x0077	
    512e:	6e 53       	incd.b	r14		
    5130:	1d 42 a8 14 	mov	&0x14a8,r13	
    5134:	4c 4e       	mov.b	r14,	r12	
    5136:	0d 9c       	cmp	r12,	r13	
    5138:	1c 2c       	jc	$+58     	;abs 0x5172
    513a:	4e 4d       	mov.b	r13,	r14	
    513c:	1a 3c       	jmp	$+54     	;abs 0x5172
    513e:	5d 42 02 00 	mov.b	&0x0002,r13	
    5142:	3d f0 40 00 	and	#64,	r13	;#0x0040
    5146:	fb 27       	jz	$-8      	;abs 0x513e
    5148:	5b 42 76 00 	mov.b	&0x0076,r11	
    514c:	1d 42 1e 13 	mov	&0x131e,r13	
    5150:	0d 93       	tst	r13		
    5152:	03 24       	jz	$+8      	;abs 0x515a
    5154:	0c 5d       	add	r13,	r12	
    5156:	cc 4b 00 00 	mov.b	r11,	0(r12)	;0x0000(r12)
    515a:	1d 42 46 12 	mov	&0x1246,r13	
    515e:	0d 93       	tst	r13		
    5160:	04 24       	jz	$+10     	;abs 0x516a
    5162:	1d 52 a4 14 	add	&0x14a4,r13	
    5166:	6d 4d       	mov.b	@r13,	r13	
    5168:	01 3c       	jmp	$+4      	;abs 0x516c
    516a:	4d 43       	clr.b	r13		
    516c:	c2 4d 77 00 	mov.b	r13,	&0x0077	
    5170:	01 3c       	jmp	$+4      	;abs 0x5174
    5172:	4e 4e       	mov.b	r14,	r14	
    5174:	1c 42 a4 14 	mov	&0x14a4,r12	
    5178:	0d 4c       	mov	r12,	r13	
    517a:	1d 53       	inc	r13		
    517c:	82 4d a4 14 	mov	r13,	&0x14a4	
    5180:	0d 9e       	cmp	r14,	r13	
    5182:	dd 2b       	jnc	$-68     	;abs 0x513e
    5184:	b0 12 e6 49 	call	#0x49e6	
    5188:	3b 41       	pop	r11		
    518a:	30 41       	ret			

0000518c <CC2420SpiP__WorkingState__isIdle>:
    518c:	0b 12       	push	r11		
    518e:	b0 12 d4 49 	call	#0x49d4	
    5192:	5b 43       	mov.b	#1,	r11	;r3 As==01
    5194:	c2 93 28 13 	tst.b	&0x1328	
    5198:	01 24       	jz	$+4      	;abs 0x519c
    519a:	4b 43       	clr.b	r11		
    519c:	b0 12 e6 49 	call	#0x49e6	
    51a0:	4f 4b       	mov.b	r11,	r15	
    51a2:	3b 41       	pop	r11		
    51a4:	30 41       	ret			

000051a6 <CC2420SpiP__attemptRelease>:
    51a6:	c2 93 80 11 	tst.b	&0x1180	
    51aa:	39 20       	jnz	$+116    	;abs 0x521e
    51ac:	f2 93 23 11 	cmp.b	#-1,	&0x1123	;r3 As==11
    51b0:	36 20       	jnz	$+110    	;abs 0x521e
    51b2:	b0 12 8c 51 	call	#0x518c	
    51b6:	4f 93       	tst.b	r15		
    51b8:	32 24       	jz	$+102    	;abs 0x521e
    51ba:	d2 43 42 13 	mov.b	#1,	&0x1342	;r3 As==01
    51be:	c2 93 da 11 	tst.b	&0x11da	
    51c2:	02 24       	jz	$+6      	;abs 0x51c8
    51c4:	c2 43 42 13 	mov.b	#0,	&0x1342	;r3 As==00
    51c8:	c2 93 42 13 	tst.b	&0x1342	
    51cc:	2a 24       	jz	$+86     	;abs 0x5222
    51ce:	f2 90 03 00 7e 11 	cmp.b	#3,	&0x117e	;#0x0003
    51d4:	29 20       	jnz	$+84     	;abs 0x5228
    51d6:	c2 93 20 11 	tst.b	&0x1120	
    51da:	28 20       	jnz	$+82     	;abs 0x522c
    51dc:	5e 42 22 11 	mov.b	&0x1122,r14	
    51e0:	7e 93       	cmp.b	#-1,	r14	;r3 As==11
    51e2:	16 24       	jz	$+46     	;abs 0x5210
    51e4:	4f 4e       	mov.b	r14,	r15	
    51e6:	5d 4f 5a 12 	mov.b	4698(r15),r13	;0x125a(r15)
    51ea:	c2 4d 22 11 	mov.b	r13,	&0x1122	
    51ee:	7d 93       	cmp.b	#-1,	r13	;r3 As==11
    51f0:	02 20       	jnz	$+6      	;abs 0x51f6
    51f2:	f2 43 21 11 	mov.b	#-1,	&0x1121	;r3 As==11
    51f6:	ff 43 5a 12 	mov.b	#-1,	4698(r15);r3 As==11, 0x125a(r15)
    51fa:	c2 4e 40 13 	mov.b	r14,	&0x1340	
    51fe:	f2 43 20 11 	mov.b	#-1,	&0x1120	;r3 As==11
    5202:	d2 43 7e 11 	mov.b	#1,	&0x117e	;r3 As==01
    5206:	7f 40 07 00 	mov.b	#7,	r15	;#0x0007
    520a:	b0 12 ee 49 	call	#0x49ee	
    520e:	04 3c       	jmp	$+10     	;abs 0x5218
    5210:	d2 43 20 11 	mov.b	#1,	&0x1120	;r3 As==01
    5214:	c2 43 7e 11 	mov.b	#0,	&0x117e	;r3 As==00
    5218:	b0 12 aa 49 	call	#0x49aa	
    521c:	05 3c       	jmp	$+12     	;abs 0x5228
    521e:	5f 43       	mov.b	#1,	r15	;r3 As==01
    5220:	30 41       	ret			
    5222:	7f 40 05 00 	mov.b	#5,	r15	;#0x0005
    5226:	30 41       	ret			
    5228:	4f 43       	clr.b	r15		
    522a:	30 41       	ret			
    522c:	4f 43       	clr.b	r15		
    522e:	30 41       	ret			

00005230 <CC2420SpiP__Strobe__strobe>:
    5230:	0b 12       	push	r11		
    5232:	0a 12       	push	r10		
    5234:	4a 4f       	mov.b	r15,	r10	
    5236:	b0 12 d4 49 	call	#0x49d4	
    523a:	4b 4f       	mov.b	r15,	r11	
    523c:	b0 12 8c 51 	call	#0x518c	
    5240:	4f 93       	tst.b	r15		
    5242:	05 24       	jz	$+12     	;abs 0x524e
    5244:	4f 4b       	mov.b	r11,	r15	
    5246:	b0 12 e6 49 	call	#0x49e6	
    524a:	4f 43       	clr.b	r15		
    524c:	06 3c       	jmp	$+14     	;abs 0x525a
    524e:	4f 4b       	mov.b	r11,	r15	
    5250:	b0 12 e6 49 	call	#0x49e6	
    5254:	4f 4a       	mov.b	r10,	r15	
    5256:	b0 12 00 46 	call	#0x4600	
    525a:	3a 41       	pop	r10		
    525c:	3b 41       	pop	r11		
    525e:	30 41       	ret			

00005260 <CC2420CsmaP__SplitControlState__isState>:
    5260:	0b 12       	push	r11		
    5262:	0a 12       	push	r10		
    5264:	4a 4f       	mov.b	r15,	r10	
    5266:	b0 12 d4 49 	call	#0x49d4	
    526a:	5b 43       	mov.b	#1,	r11	;r3 As==01
    526c:	5a 92 29 13 	cmp.b	&0x1329,r10	
    5270:	01 24       	jz	$+4      	;abs 0x5274
    5272:	4b 43       	clr.b	r11		
    5274:	b0 12 e6 49 	call	#0x49e6	
    5278:	4f 4b       	mov.b	r11,	r15	
    527a:	3a 41       	pop	r10		
    527c:	3b 41       	pop	r11		
    527e:	30 41       	ret			

00005280 <Msp430GpioC__4__GeneralIO__clr>:
    5280:	b0 12 d4 49 	call	#0x49d4	
    5284:	f2 f0 fb ff 1d 00 	and.b	#-5,	&0x001d	;#0xfffb
    528a:	b0 12 e6 49 	call	#0x49e6	
    528e:	30 41       	ret			

00005290 <CC2420SpiP__SpiPacket__send.part.152>:
    5290:	b0 12 d4 49 	call	#0x49d4	
    5294:	f2 f0 bf ff 02 00 	and.b	#-65,	&0x0002	;#0xffbf
    529a:	f2 d0 40 00 00 00 	bis.b	#64,	&0x0000	;#0x0040
    52a0:	b0 12 e6 49 	call	#0x49e6	
    52a4:	b0 12 10 51 	call	#0x5110	
    52a8:	30 41       	ret			

000052aa <CC2420ReceiveP__RXFIFO__continueRead>:
    52aa:	4e 4e       	mov.b	r14,	r14	
    52ac:	c2 43 62 12 	mov.b	#0,	&0x1262	;r3 As==00
    52b0:	82 43 46 12 	mov	#0,	&0x1246	;r3 As==00
    52b4:	82 4f 1e 13 	mov	r15,	&0x131e	
    52b8:	82 4e a8 14 	mov	r14,	&0x14a8	
    52bc:	82 43 a4 14 	mov	#0,	&0x14a4	;r3 As==00
    52c0:	0e 93       	tst	r14		
    52c2:	03 24       	jz	$+8      	;abs 0x52ca
    52c4:	b0 12 90 52 	call	#0x5290	
    52c8:	04 3c       	jmp	$+10     	;abs 0x52d2
    52ca:	7f 40 06 00 	mov.b	#6,	r15	;#0x0006
    52ce:	b0 12 ee 49 	call	#0x49ee	
    52d2:	4f 43       	clr.b	r15		
    52d4:	30 41       	ret			

000052d6 <CC2420ReceiveP__RXFIFO__beginRead>:
    52d6:	0b 12       	push	r11		
    52d8:	0a 12       	push	r10		
    52da:	09 12       	push	r9		
    52dc:	0a 4f       	mov	r15,	r10	
    52de:	49 4e       	mov.b	r14,	r9	
    52e0:	b0 12 d4 49 	call	#0x49d4	
    52e4:	4b 4f       	mov.b	r15,	r11	
    52e6:	b0 12 8c 51 	call	#0x518c	
    52ea:	4f 93       	tst.b	r15		
    52ec:	05 24       	jz	$+12     	;abs 0x52f8
    52ee:	4f 4b       	mov.b	r11,	r15	
    52f0:	b0 12 e6 49 	call	#0x49e6	
    52f4:	4b 43       	clr.b	r11		
    52f6:	1f 3c       	jmp	$+64     	;abs 0x5336
    52f8:	4f 4b       	mov.b	r11,	r15	
    52fa:	b0 12 e6 49 	call	#0x49e6	
    52fe:	b2 40 7f 00 64 12 	mov	#127,	&0x1264	;#0x007f
    5304:	7f 40 7f 00 	mov.b	#127,	r15	;#0x007f
    5308:	b0 12 00 46 	call	#0x4600	
    530c:	4b 4f       	mov.b	r15,	r11	
    530e:	4e 49       	mov.b	r9,	r14	
    5310:	c2 43 62 12 	mov.b	#0,	&0x1262	;r3 As==00
    5314:	82 43 46 12 	mov	#0,	&0x1246	;r3 As==00
    5318:	82 4a 1e 13 	mov	r10,	&0x131e	
    531c:	82 4e a8 14 	mov	r14,	&0x14a8	
    5320:	82 43 a4 14 	mov	#0,	&0x14a4	;r3 As==00
    5324:	0e 93       	tst	r14		
    5326:	03 24       	jz	$+8      	;abs 0x532e
    5328:	b0 12 90 52 	call	#0x5290	
    532c:	04 3c       	jmp	$+10     	;abs 0x5336
    532e:	7f 40 06 00 	mov.b	#6,	r15	;#0x0006
    5332:	b0 12 ee 49 	call	#0x49ee	
    5336:	4f 4b       	mov.b	r11,	r15	
    5338:	39 41       	pop	r9		
    533a:	3a 41       	pop	r10		
    533c:	3b 41       	pop	r11		
    533e:	30 41       	ret			

00005340 <CC2420ReceiveP__receive>:
    5340:	b0 12 80 52 	call	#0x5280	
    5344:	5e 43       	mov.b	#1,	r14	;r3 As==01
    5346:	1f 42 88 11 	mov	&0x1188,r15	
    534a:	b0 12 d6 52 	call	#0x52d6	
    534e:	30 41       	ret			

00005350 <CC2420TransmitP__Send__sendDone.isra.157>:
    5350:	0b 12       	push	r11		
    5352:	4b 4f       	mov.b	r15,	r11	
    5354:	b0 12 d4 49 	call	#0x49d4	
    5358:	c2 4b 84 11 	mov.b	r11,	&0x1184	
    535c:	b0 12 e6 49 	call	#0x49e6	
    5360:	6f 43       	mov.b	#2,	r15	;r3 As==10
    5362:	b0 12 ee 49 	call	#0x49ee	
    5366:	3b 41       	pop	r11		
    5368:	30 41       	ret			

0000536a <CC2420TransmitP__signalDone>:
    536a:	0b 12       	push	r11		
    536c:	4b 4f       	mov.b	r15,	r11	
    536e:	92 43 70 11 	mov	#1,	&0x1170	;r3 As==01
    5372:	c2 43 da 11 	mov.b	#0,	&0x11da	;r3 As==00
    5376:	b0 12 a6 51 	call	#0x51a6	
    537a:	4f 4b       	mov.b	r11,	r15	
    537c:	b0 12 50 53 	call	#0x5350	
    5380:	3b 41       	pop	r11		
    5382:	30 41       	ret			

00005384 <Msp430GpioC__4__GeneralIO__set>:
    5384:	b0 12 d4 49 	call	#0x49d4	
    5388:	e2 d2 1d 00 	bis.b	#4,	&0x001d	;r2 As==10
    538c:	b0 12 e6 49 	call	#0x49e6	
    5390:	30 41       	ret			

00005392 <CC2420SpiP__Resource__release>:
    5392:	0b 12       	push	r11		
    5394:	0a 12       	push	r10		
    5396:	09 12       	push	r9		
    5398:	4b 4f       	mov.b	r15,	r11	
    539a:	b0 12 d4 49 	call	#0x49d4	
    539e:	4a 4f       	mov.b	r15,	r10	
    53a0:	c2 9b 23 11 	cmp.b	r11,	&0x1123	
    53a4:	04 24       	jz	$+10     	;abs 0x53ae
    53a6:	b0 12 e6 49 	call	#0x49e6	
    53aa:	5f 43       	mov.b	#1,	r15	;r3 As==01
    53ac:	4c 3c       	jmp	$+154    	;abs 0x5446
    53ae:	f2 43 23 11 	mov.b	#-1,	&0x1123	;r3 As==11
    53b2:	5b 42 80 11 	mov.b	&0x1180,r11	
    53b6:	4b 93       	tst.b	r11		
    53b8:	09 20       	jnz	$+20     	;abs 0x53cc
    53ba:	b0 12 d4 49 	call	#0x49d4	
    53be:	c2 43 28 13 	mov.b	#0,	&0x1328	;r3 As==00
    53c2:	b0 12 e6 49 	call	#0x49e6	
    53c6:	b0 12 a6 51 	call	#0x51a6	
    53ca:	35 3c       	jmp	$+108    	;abs 0x5436
    53cc:	4c 43       	clr.b	r12		
    53ce:	49 4b       	mov.b	r11,	r9	
    53d0:	02 12       	push	r2		
    53d2:	32 c2       	dint			
    53d4:	03 43       	nop			
    53d6:	c2 4c 30 01 	mov.b	r12,	&0x0130	
    53da:	f2 40 cd ff 38 01 	mov.b	#-51,	&0x0138	;#0xffcd
    53e0:	1e 42 3a 01 	mov	&0x013a,r14	
    53e4:	32 41       	pop	r2		
    53e6:	8e 10       	swpb	r14		
    53e8:	12 c3       	clrc			
    53ea:	4e 10       	rrc.b	r14		
    53ec:	12 c3       	clrc			
    53ee:	4e 10       	rrc.b	r14		
    53f0:	4d 4e       	mov.b	r14,	r13	
    53f2:	4d 5d       	rla.b	r13		
    53f4:	4d 5d       	rla.b	r13		
    53f6:	4e 5d       	add.b	r13,	r14	
    53f8:	4c 8e       	sub.b	r14,	r12	
    53fa:	4e 4c       	mov.b	r12,	r14	
    53fc:	4f 4c       	mov.b	r12,	r15	
    53fe:	0d 49       	mov	r9,	r13	
    5400:	7c f0 0f 00 	and.b	#15,	r12	;#0x000f
    5404:	4c 93       	tst.b	r12		
    5406:	03 24       	jz	$+8      	;abs 0x540e
    5408:	0d 11       	rra	r13		
    540a:	7c 53       	add.b	#-1,	r12	;r3 As==11
    540c:	fb 3f       	jmp	$-8      	;abs 0x5404
    540e:	1d f3       	and	#1,	r13	;r3 As==01
    5410:	17 24       	jz	$+48     	;abs 0x5440
    5412:	c2 4e 23 11 	mov.b	r14,	&0x1123	
    5416:	1e 43       	mov	#1,	r14	;r3 As==01
    5418:	4d 4f       	mov.b	r15,	r13	
    541a:	7d f0 0f 00 	and.b	#15,	r13	;#0x000f
    541e:	4d 93       	tst.b	r13		
    5420:	03 24       	jz	$+8      	;abs 0x5428
    5422:	0e 5e       	rla	r14		
    5424:	7d 53       	add.b	#-1,	r13	;r3 As==11
    5426:	fb 3f       	jmp	$-8      	;abs 0x541e
    5428:	4b ce       	bic.b	r14,	r11	
    542a:	c2 4b 80 11 	mov.b	r11,	&0x1180	
    542e:	7f 40 05 00 	mov.b	#5,	r15	;#0x0005
    5432:	b0 12 ee 49 	call	#0x49ee	
    5436:	4f 4a       	mov.b	r10,	r15	
    5438:	b0 12 e6 49 	call	#0x49e6	
    543c:	4f 43       	clr.b	r15		
    543e:	03 3c       	jmp	$+8      	;abs 0x5446
    5440:	4c 4e       	mov.b	r14,	r12	
    5442:	5c 53       	inc.b	r12		
    5444:	c5 3f       	jmp	$-116    	;abs 0x53d0
    5446:	39 41       	pop	r9		
    5448:	3a 41       	pop	r10		
    544a:	3b 41       	pop	r11		
    544c:	30 41       	ret			

0000544e <CC2420TransmitP__releaseSpiResource>:
    544e:	7f 40 03 00 	mov.b	#3,	r15	;#0x0003
    5452:	b0 12 92 53 	call	#0x5392	
    5456:	4f 43       	clr.b	r15		
    5458:	30 41       	ret			

0000545a <TransformAlarmC__0__Counter__get>:
    545a:	0b 12       	push	r11		
    545c:	0a 12       	push	r10		
    545e:	09 12       	push	r9		
    5460:	b0 12 d4 49 	call	#0x49d4	
    5464:	49 4f       	mov.b	r15,	r9	
    5466:	1b 42 7a 12 	mov	&0x127a,r11	
    546a:	b0 12 72 46 	call	#0x4672	
    546e:	0a 4f       	mov	r15,	r10	
    5470:	1f 42 80 01 	mov	&0x0180,r15	
    5474:	5f f3       	and.b	#1,	r15	;r3 As==01
    5476:	04 24       	jz	$+10     	;abs 0x5480
    5478:	1b 53       	inc	r11		
    547a:	b0 12 72 46 	call	#0x4672	
    547e:	0a 4f       	mov	r15,	r10	
    5480:	0c 43       	clr	r12		
    5482:	0d 43       	clr	r13		
    5484:	0d 4b       	mov	r11,	r13	
    5486:	0e 4a       	mov	r10,	r14	
    5488:	0f 43       	clr	r15		
    548a:	0a 4c       	mov	r12,	r10	
    548c:	0b 4d       	mov	r13,	r11	
    548e:	0a de       	bis	r14,	r10	
    5490:	0b df       	bis	r15,	r11	
    5492:	4f 49       	mov.b	r9,	r15	
    5494:	b0 12 e6 49 	call	#0x49e6	
    5498:	0e 4a       	mov	r10,	r14	
    549a:	0f 4b       	mov	r11,	r15	
    549c:	39 41       	pop	r9		
    549e:	3a 41       	pop	r10		
    54a0:	3b 41       	pop	r11		
    54a2:	30 41       	ret			

000054a4 <TransformAlarmC__0__set_alarm>:
    54a4:	0b 12       	push	r11		
    54a6:	0a 12       	push	r10		
    54a8:	09 12       	push	r9		
    54aa:	08 12       	push	r8		
    54ac:	b0 12 5a 54 	call	#0x545a	
    54b0:	08 4e       	mov	r14,	r8	
    54b2:	09 4f       	mov	r15,	r9	
    54b4:	1e 42 5c 12 	mov	&0x125c,r14	
    54b8:	1f 42 5e 12 	mov	&0x125e,r15	
    54bc:	0a 4e       	mov	r14,	r10	
    54be:	0b 4f       	mov	r15,	r11	
    54c0:	1a 52 4a 12 	add	&0x124a,r10	
    54c4:	1b 62 4c 12 	addc	&0x124c,r11	
    54c8:	09 9f       	cmp	r15,	r9	
    54ca:	09 28       	jnc	$+20     	;abs 0x54de
    54cc:	02 20       	jnz	$+6      	;abs 0x54d2
    54ce:	08 9e       	cmp	r14,	r8	
    54d0:	06 28       	jnc	$+14     	;abs 0x54de
    54d2:	0b 9f       	cmp	r15,	r11	
    54d4:	10 28       	jnc	$+34     	;abs 0x54f6
    54d6:	09 20       	jnz	$+20     	;abs 0x54ea
    54d8:	0a 9e       	cmp	r14,	r10	
    54da:	0d 28       	jnc	$+28     	;abs 0x54f6
    54dc:	06 3c       	jmp	$+14     	;abs 0x54ea
    54de:	0b 9f       	cmp	r15,	r11	
    54e0:	04 28       	jnc	$+10     	;abs 0x54ea
    54e2:	0f 9b       	cmp	r11,	r15	
    54e4:	27 28       	jnc	$+80     	;abs 0x5534
    54e6:	0a 9e       	cmp	r14,	r10	
    54e8:	25 2c       	jc	$+76     	;abs 0x5534
    54ea:	09 9b       	cmp	r11,	r9	
    54ec:	04 28       	jnc	$+10     	;abs 0x54f6
    54ee:	0b 99       	cmp	r9,	r11	
    54f0:	21 28       	jnc	$+68     	;abs 0x5534
    54f2:	08 9a       	cmp	r10,	r8	
    54f4:	1f 2c       	jc	$+64     	;abs 0x5534
    54f6:	0c 4a       	mov	r10,	r12	
    54f8:	0d 4b       	mov	r11,	r13	
    54fa:	0c 88       	sub	r8,	r12	
    54fc:	0d 79       	subc	r9,	r13	
    54fe:	0d 93       	tst	r13		
    5500:	03 20       	jnz	$+8      	;abs 0x5508
    5502:	3c 90 01 80 	cmp	#-32767,r12	;#0x8001
    5506:	18 28       	jnc	$+50     	;abs 0x5538
    5508:	0e 48       	mov	r8,	r14	
    550a:	0f 49       	mov	r9,	r15	
    550c:	3e 50 00 80 	add	#-32768,r14	;#0x8000
    5510:	0f 63       	adc	r15		
    5512:	82 4e 5c 12 	mov	r14,	&0x125c	
    5516:	82 4f 5e 12 	mov	r15,	&0x125e	
    551a:	0e 4c       	mov	r12,	r14	
    551c:	0f 4d       	mov	r13,	r15	
    551e:	3e 50 00 80 	add	#-32768,r14	;#0x8000
    5522:	3f 63       	addc	#-1,	r15	;r3 As==11
    5524:	82 4e 4a 12 	mov	r14,	&0x124a	
    5528:	82 4f 4c 12 	mov	r15,	&0x124c	
    552c:	3c 40 00 80 	mov	#-32768,r12	;#0x8000
    5530:	0d 43       	clr	r13		
    5532:	0a 3c       	jmp	$+22     	;abs 0x5548
    5534:	0c 43       	clr	r12		
    5536:	0d 43       	clr	r13		
    5538:	82 4a 5c 12 	mov	r10,	&0x125c	
    553c:	82 4b 5e 12 	mov	r11,	&0x125e	
    5540:	82 43 4a 12 	mov	#0,	&0x124a	;r3 As==00
    5544:	82 43 4c 12 	mov	#0,	&0x124c	;r3 As==00
    5548:	0a 4c       	mov	r12,	r10	
    554a:	b0 12 72 46 	call	#0x4672	
    554e:	0e 4f       	mov	r15,	r14	
    5550:	0e 88       	sub	r8,	r14	
    5552:	0e 9a       	cmp	r10,	r14	
    5554:	05 2c       	jc	$+12     	;abs 0x5560
    5556:	0c 4a       	mov	r10,	r12	
    5558:	0c 8e       	sub	r14,	r12	
    555a:	3c 90 03 00 	cmp	#3,	r12	;#0x0003
    555e:	06 2c       	jc	$+14     	;abs 0x556c
    5560:	b0 12 72 46 	call	#0x4672	
    5564:	2f 53       	incd	r15		
    5566:	82 4f 92 01 	mov	r15,	&0x0192	
    556a:	03 3c       	jmp	$+8      	;abs 0x5572
    556c:	0c 5f       	add	r15,	r12	
    556e:	82 4c 92 01 	mov	r12,	&0x0192	
    5572:	b2 f0 fe ff 82 01 	and	#-2,	&0x0182	;#0xfffe
    5578:	b2 d0 10 00 82 01 	bis	#16,	&0x0182	;#0x0010
    557e:	38 41       	pop	r8		
    5580:	39 41       	pop	r9		
    5582:	3a 41       	pop	r10		
    5584:	3b 41       	pop	r11		
    5586:	30 41       	ret			

00005588 <TransformAlarmC__0__Alarm__start>:
    5588:	0b 12       	push	r11		
    558a:	0a 12       	push	r10		
    558c:	09 12       	push	r9		
    558e:	08 12       	push	r8		
    5590:	21 83       	decd	r1		
    5592:	0a 4e       	mov	r14,	r10	
    5594:	0b 4f       	mov	r15,	r11	
    5596:	b0 12 5a 54 	call	#0x545a	
    559a:	08 4e       	mov	r14,	r8	
    559c:	09 4f       	mov	r15,	r9	
    559e:	b0 12 d4 49 	call	#0x49d4	
    55a2:	82 48 5c 12 	mov	r8,	&0x125c	
    55a6:	82 49 5e 12 	mov	r9,	&0x125e	
    55aa:	82 4a 4a 12 	mov	r10,	&0x124a	
    55ae:	82 4b 4c 12 	mov	r11,	&0x124c	
    55b2:	81 4f 00 00 	mov	r15,	0(r1)	;0x0000(r1)
    55b6:	b0 12 a4 54 	call	#0x54a4	
    55ba:	2f 41       	mov	@r1,	r15	
    55bc:	b0 12 e6 49 	call	#0x49e6	
    55c0:	21 53       	incd	r1		
    55c2:	38 41       	pop	r8		
    55c4:	39 41       	pop	r9		
    55c6:	3a 41       	pop	r10		
    55c8:	3b 41       	pop	r11		
    55ca:	30 41       	ret			

000055cc <CC2420TransmitP__congestionBackoff>:
    55cc:	0b 12       	push	r11		
    55ce:	b0 12 d4 49 	call	#0x49d4	
    55d2:	4b 4f       	mov.b	r15,	r11	
    55d4:	b0 12 a8 45 	call	#0x45a8	
    55d8:	3e 40 46 00 	mov	#70,	r14	;#0x0046
    55dc:	b0 12 b2 7a 	call	#0x7ab2	
    55e0:	0e 4f       	mov	r15,	r14	
    55e2:	3e 50 0b 00 	add	#11,	r14	;#0x000b
    55e6:	82 4e 14 15 	mov	r14,	&0x1514	
    55ea:	0f 43       	clr	r15		
    55ec:	b0 12 88 55 	call	#0x5588	
    55f0:	4f 4b       	mov.b	r11,	r15	
    55f2:	b0 12 e6 49 	call	#0x49e6	
    55f6:	3b 41       	pop	r11		
    55f8:	30 41       	ret			

000055fa <CC2420TransmitP__attemptSend>:
    55fa:	0b 12       	push	r11		
    55fc:	0a 12       	push	r10		
    55fe:	b0 12 d4 49 	call	#0x49d4	
    5602:	4a 4f       	mov.b	r15,	r10	
    5604:	b2 92 70 11 	cmp	#8,	&0x1170	;r2 As==11
    5608:	12 20       	jnz	$+38     	;abs 0x562e
    560a:	7f 40 09 00 	mov.b	#9,	r15	;#0x0009
    560e:	b0 12 30 52 	call	#0x5230	
    5612:	b0 12 4e 54 	call	#0x544e	
    5616:	b0 12 84 53 	call	#0x5384	
    561a:	92 43 70 11 	mov	#1,	&0x1170	;r3 As==01
    561e:	7f 40 03 00 	mov.b	#3,	r15	;#0x0003
    5622:	b0 12 50 53 	call	#0x5350	
    5626:	4f 4a       	mov.b	r10,	r15	
    5628:	b0 12 e6 49 	call	#0x49e6	
    562c:	2f 3c       	jmp	$+96     	;abs 0x568c
    562e:	b0 12 80 52 	call	#0x5280	
    5632:	c2 93 18 15 	tst.b	&0x1518	
    5636:	03 24       	jz	$+8      	;abs 0x563e
    5638:	7f 40 05 00 	mov.b	#5,	r15	;#0x0005
    563c:	01 3c       	jmp	$+4      	;abs 0x5640
    563e:	6f 42       	mov.b	#4,	r15	;r2 As==10
    5640:	b0 12 30 52 	call	#0x5230	
    5644:	4e 4f       	mov.b	r15,	r14	
    5646:	3e f2       	and	#8,	r14	;r2 As==11
    5648:	05 20       	jnz	$+12     	;abs 0x5654
    564a:	4f 43       	clr.b	r15		
    564c:	b0 12 30 52 	call	#0x5230	
    5650:	3f f2       	and	#8,	r15	;r2 As==11
    5652:	04 20       	jnz	$+10     	;abs 0x565c
    5654:	5b 43       	mov.b	#1,	r11	;r3 As==01
    5656:	3f 40 03 00 	mov	#3,	r15	;#0x0003
    565a:	03 3c       	jmp	$+8      	;abs 0x5662
    565c:	4b 43       	clr.b	r11		
    565e:	3f 40 05 00 	mov	#5,	r15	;#0x0005
    5662:	82 4f 70 11 	mov	r15,	&0x1170	
    5666:	b0 12 84 53 	call	#0x5384	
    566a:	4f 4a       	mov.b	r10,	r15	
    566c:	b0 12 e6 49 	call	#0x49e6	
    5670:	4b 93       	tst.b	r11		
    5672:	07 24       	jz	$+16     	;abs 0x5682
    5674:	c2 43 90 11 	mov.b	#0,	&0x1190	;r3 As==00
    5678:	b0 12 4e 54 	call	#0x544e	
    567c:	b0 12 cc 55 	call	#0x55cc	
    5680:	05 3c       	jmp	$+12     	;abs 0x568c
    5682:	3e 40 40 01 	mov	#320,	r14	;#0x0140
    5686:	0f 43       	clr	r15		
    5688:	b0 12 88 55 	call	#0x5588	
    568c:	3a 41       	pop	r10		
    568e:	3b 41       	pop	r11		
    5690:	30 41       	ret			

00005692 <CC2420SpiP__Reg__write>:
    5692:	0b 12       	push	r11		
    5694:	0a 12       	push	r10		
    5696:	09 12       	push	r9		
    5698:	49 4f       	mov.b	r15,	r9	
    569a:	0a 4e       	mov	r14,	r10	
    569c:	b0 12 d4 49 	call	#0x49d4	
    56a0:	4b 4f       	mov.b	r15,	r11	
    56a2:	b0 12 8c 51 	call	#0x518c	
    56a6:	4f 93       	tst.b	r15		
    56a8:	05 24       	jz	$+12     	;abs 0x56b4
    56aa:	4f 4b       	mov.b	r11,	r15	
    56ac:	b0 12 e6 49 	call	#0x49e6	
    56b0:	4f 43       	clr.b	r15		
    56b2:	0d 3c       	jmp	$+28     	;abs 0x56ce
    56b4:	4f 4b       	mov.b	r11,	r15	
    56b6:	b0 12 e6 49 	call	#0x49e6	
    56ba:	4f 49       	mov.b	r9,	r15	
    56bc:	b0 12 00 46 	call	#0x4600	
    56c0:	0f 4a       	mov	r10,	r15	
    56c2:	8f 10       	swpb	r15		
    56c4:	b0 12 00 46 	call	#0x4600	
    56c8:	4f 4a       	mov.b	r10,	r15	
    56ca:	b0 12 00 46 	call	#0x4600	
    56ce:	39 41       	pop	r9		
    56d0:	3a 41       	pop	r10		
    56d2:	3b 41       	pop	r11		
    56d4:	30 41       	ret			

000056d6 <CC2420SpiP__Ram__write>:
    56d6:	0b 12       	push	r11		
    56d8:	0a 12       	push	r10		
    56da:	09 12       	push	r9		
    56dc:	08 12       	push	r8		
    56de:	07 12       	push	r7		
    56e0:	08 4f       	mov	r15,	r8	
    56e2:	4a 4e       	mov.b	r14,	r10	
    56e4:	07 4d       	mov	r13,	r7	
    56e6:	4b 4c       	mov.b	r12,	r11	
    56e8:	b0 12 d4 49 	call	#0x49d4	
    56ec:	49 4f       	mov.b	r15,	r9	
    56ee:	b0 12 8c 51 	call	#0x518c	
    56f2:	4f 93       	tst.b	r15		
    56f4:	05 24       	jz	$+12     	;abs 0x5700
    56f6:	4f 49       	mov.b	r9,	r15	
    56f8:	b0 12 e6 49 	call	#0x49e6	
    56fc:	4f 43       	clr.b	r15		
    56fe:	21 3c       	jmp	$+68     	;abs 0x5742
    5700:	4f 49       	mov.b	r9,	r15	
    5702:	b0 12 e6 49 	call	#0x49e6	
    5706:	4a 4a       	mov.b	r10,	r10	
    5708:	0a 58       	add	r8,	r10	
    570a:	4f 4a       	mov.b	r10,	r15	
    570c:	7f d0 80 ff 	bis.b	#-128,	r15	;#0xff80
    5710:	b0 12 00 46 	call	#0x4600	
    5714:	49 4f       	mov.b	r15,	r9	
    5716:	0e 4a       	mov	r10,	r14	
    5718:	12 c3       	clrc			
    571a:	0e 10       	rrc	r14		
    571c:	4f 4e       	mov.b	r14,	r15	
    571e:	7f f0 c0 ff 	and.b	#-64,	r15	;#0xffc0
    5722:	b0 12 00 46 	call	#0x4600	
    5726:	4a 4b       	mov.b	r11,	r10	
    5728:	09 3c       	jmp	$+20     	;abs 0x573c
    572a:	4e 4b       	mov.b	r11,	r14	
    572c:	0f 4a       	mov	r10,	r15	
    572e:	0f 8e       	sub	r14,	r15	
    5730:	0e 4f       	mov	r15,	r14	
    5732:	0e 57       	add	r7,	r14	
    5734:	6f 4e       	mov.b	@r14,	r15	
    5736:	b0 12 00 46 	call	#0x4600	
    573a:	7b 53       	add.b	#-1,	r11	;r3 As==11
    573c:	4b 93       	tst.b	r11		
    573e:	f5 23       	jnz	$-20     	;abs 0x572a
    5740:	4f 49       	mov.b	r9,	r15	
    5742:	37 41       	pop	r7		
    5744:	38 41       	pop	r8		
    5746:	39 41       	pop	r9		
    5748:	3a 41       	pop	r10		
    574a:	3b 41       	pop	r11		
    574c:	30 41       	ret			

0000574e <CC2420ControlP__writeId>:
    574e:	0b 12       	push	r11		
    5750:	31 50 f4 ff 	add	#-12,	r1	;#0xfff4
    5754:	b0 12 d4 49 	call	#0x49d4	
    5758:	4b 4f       	mov.b	r15,	r11	
    575a:	3d 42       	mov	#8,	r13	;r2 As==11
    575c:	3e 40 38 13 	mov	#4920,	r14	;#0x1338
    5760:	0f 41       	mov	r1,	r15	
    5762:	b0 12 da 7a 	call	#0x7ada	
    5766:	1e 42 0c 12 	mov	&0x120c,r14	
    576a:	c1 4e 08 00 	mov.b	r14,	8(r1)	;0x0008(r1)
    576e:	8e 10       	swpb	r14		
    5770:	c1 4e 09 00 	mov.b	r14,	9(r1)	;0x0009(r1)
    5774:	1e 42 60 12 	mov	&0x1260,r14	
    5778:	c1 4e 0a 00 	mov.b	r14,	10(r1)	;0x000a(r1)
    577c:	8e 10       	swpb	r14		
    577e:	c1 4e 0b 00 	mov.b	r14,	11(r1)	;0x000b(r1)
    5782:	4f 4b       	mov.b	r11,	r15	
    5784:	b0 12 e6 49 	call	#0x49e6	
    5788:	7c 40 0c 00 	mov.b	#12,	r12	;#0x000c
    578c:	0d 41       	mov	r1,	r13	
    578e:	4e 43       	clr.b	r14		
    5790:	3f 40 60 01 	mov	#352,	r15	;#0x0160
    5794:	b0 12 d6 56 	call	#0x56d6	
    5798:	31 50 0c 00 	add	#12,	r1	;#0x000c
    579c:	3b 41       	pop	r11		
    579e:	30 41       	ret			

000057a0 <CC2420CsmaP__SplitControlState__forceState>:
    57a0:	0b 12       	push	r11		
    57a2:	4b 4f       	mov.b	r15,	r11	
    57a4:	b0 12 d4 49 	call	#0x49d4	
    57a8:	c2 4b 29 13 	mov.b	r11,	&0x1329	
    57ac:	b0 12 e6 49 	call	#0x49e6	
    57b0:	3b 41       	pop	r11		
    57b2:	30 41       	ret			

000057b4 <FWBC__CC2420Config__getChannel>:
    57b4:	0b 12       	push	r11		
    57b6:	b0 12 d4 49 	call	#0x49d4	
    57ba:	5b 42 41 13 	mov.b	&0x1341,r11	
    57be:	b0 12 e6 49 	call	#0x49e6	
    57c2:	4f 4b       	mov.b	r11,	r15	
    57c4:	3b 41       	pop	r11		
    57c6:	30 41       	ret			

000057c8 <FWBC__Leds__led1Toggle>:
    57c8:	b0 12 d4 49 	call	#0x49d4	
    57cc:	f2 e0 20 00 31 00 	xor.b	#32,	&0x0031	;#0x0020
    57d2:	b0 12 e6 49 	call	#0x49e6	
    57d6:	30 41       	ret			

000057d8 <CC2420TransmitP__loadTXFIFO>:
    57d8:	0b 12       	push	r11		
    57da:	0a 12       	push	r10		
    57dc:	09 12       	push	r9		
    57de:	1b 42 3a 12 	mov	&0x123a,r11	
    57e2:	5a 4b 2a 00 	mov.b	42(r11),r10	;0x002a(r11)
    57e6:	4a 93       	tst.b	r10		
    57e8:	02 20       	jnz	$+6      	;abs 0x57ee
    57ea:	7a 40 1f 00 	mov.b	#31,	r10	;#0x001f
    57ee:	b0 12 80 52 	call	#0x5280	
    57f2:	c2 9a fb 11 	cmp.b	r10,	&0x11fb	
    57f6:	07 24       	jz	$+16     	;abs 0x5806
    57f8:	4e 4a       	mov.b	r10,	r14	
    57fa:	3e d0 e0 80 	bis	#-32544,r14	;#0x80e0
    57fe:	7f 40 15 00 	mov.b	#21,	r15	;#0x0015
    5802:	b0 12 92 56 	call	#0x5692	
    5806:	c2 4a fb 11 	mov.b	r10,	&0x11fb	
    580a:	69 4b       	mov.b	@r11,	r9	
    580c:	b0 12 d4 49 	call	#0x49d4	
    5810:	4a 4f       	mov.b	r15,	r10	
    5812:	b0 12 8c 51 	call	#0x518c	
    5816:	4f 93       	tst.b	r15		
    5818:	04 24       	jz	$+10     	;abs 0x5822
    581a:	4f 4a       	mov.b	r10,	r15	
    581c:	b0 12 e6 49 	call	#0x49e6	
    5820:	20 3c       	jmp	$+66     	;abs 0x5862
    5822:	4f 4a       	mov.b	r10,	r15	
    5824:	b0 12 e6 49 	call	#0x49e6	
    5828:	b2 40 3e 00 64 12 	mov	#62,	&0x1264	;#0x003e
    582e:	7f 40 3e 00 	mov.b	#62,	r15	;#0x003e
    5832:	b0 12 00 46 	call	#0x4600	
    5836:	4f 49       	mov.b	r9,	r15	
    5838:	7f 53       	add.b	#-1,	r15	;r3 As==11
    583a:	4f 4f       	mov.b	r15,	r15	
    583c:	c2 43 62 12 	mov.b	#0,	&0x1262	;r3 As==00
    5840:	82 4b 46 12 	mov	r11,	&0x1246	
    5844:	82 43 1e 13 	mov	#0,	&0x131e	;r3 As==00
    5848:	82 4f a8 14 	mov	r15,	&0x14a8	
    584c:	82 43 a4 14 	mov	#0,	&0x14a4	;r3 As==00
    5850:	0f 93       	tst	r15		
    5852:	03 24       	jz	$+8      	;abs 0x585a
    5854:	b0 12 90 52 	call	#0x5290	
    5858:	04 3c       	jmp	$+10     	;abs 0x5862
    585a:	7f 40 06 00 	mov.b	#6,	r15	;#0x0006
    585e:	b0 12 ee 49 	call	#0x49ee	
    5862:	39 41       	pop	r9		
    5864:	3a 41       	pop	r10		
    5866:	3b 41       	pop	r11		
    5868:	30 41       	ret			

0000586a <FWBC__Leds__led0Toggle>:
    586a:	b0 12 d4 49 	call	#0x49d4	
    586e:	f2 e0 10 00 31 00 	xor.b	#16,	&0x0031	;#0x0010
    5874:	b0 12 e6 49 	call	#0x49e6	
    5878:	30 41       	ret			

0000587a <CC2420ControlP__RSTN__clr>:
    587a:	b0 12 d4 49 	call	#0x49d4	
    587e:	f2 f0 bf ff 1d 00 	and.b	#-65,	&0x001d	;#0xffbf
    5884:	b0 12 e6 49 	call	#0x49e6	
    5888:	30 41       	ret			

0000588a <CC2420ControlP__RSTN__set>:
    588a:	b0 12 d4 49 	call	#0x49d4	
    588e:	f2 d0 40 00 1d 00 	bis.b	#64,	&0x001d	;#0x0040
    5894:	b0 12 e6 49 	call	#0x49e6	
    5898:	30 41       	ret			

0000589a <TransformAlarmC__1__Counter__get>:
    589a:	0b 12       	push	r11		
    589c:	0a 12       	push	r10		
    589e:	09 12       	push	r9		
    58a0:	08 12       	push	r8		
    58a2:	07 12       	push	r7		
    58a4:	b0 12 d4 49 	call	#0x49d4	
    58a8:	47 4f       	mov.b	r15,	r7	
    58aa:	1a 42 42 12 	mov	&0x1242,r10	
    58ae:	1b 42 44 12 	mov	&0x1244,r11	
    58b2:	b0 12 72 46 	call	#0x4672	
    58b6:	0d 4f       	mov	r15,	r13	
    58b8:	1f 42 80 01 	mov	&0x0180,r15	
    58bc:	5f f3       	and.b	#1,	r15	;r3 As==01
    58be:	05 24       	jz	$+12     	;abs 0x58ca
    58c0:	1a 53       	inc	r10		
    58c2:	0b 63       	adc	r11		
    58c4:	b0 12 72 46 	call	#0x4672	
    58c8:	0d 4f       	mov	r15,	r13	
    58ca:	12 c3       	clrc			
    58cc:	0d 10       	rrc	r13		
    58ce:	12 c3       	clrc			
    58d0:	0d 10       	rrc	r13		
    58d2:	12 c3       	clrc			
    58d4:	0d 10       	rrc	r13		
    58d6:	12 c3       	clrc			
    58d8:	0d 10       	rrc	r13		
    58da:	12 c3       	clrc			
    58dc:	0d 10       	rrc	r13		
    58de:	08 4d       	mov	r13,	r8	
    58e0:	09 43       	clr	r9		
    58e2:	0e 4a       	mov	r10,	r14	
    58e4:	0f 4b       	mov	r11,	r15	
    58e6:	4f ea       	xor.b	r10,	r15	
    58e8:	0f ea       	xor	r10,	r15	
    58ea:	8f 10       	swpb	r15		
    58ec:	4e 4e       	mov.b	r14,	r14	
    58ee:	8e 10       	swpb	r14		
    58f0:	0e 5e       	rla	r14		
    58f2:	0f 6f       	rlc	r15		
    58f4:	0e 5e       	rla	r14		
    58f6:	0f 6f       	rlc	r15		
    58f8:	0e 5e       	rla	r14		
    58fa:	0f 6f       	rlc	r15		
    58fc:	08 de       	bis	r14,	r8	
    58fe:	09 df       	bis	r15,	r9	
    5900:	4f 47       	mov.b	r7,	r15	
    5902:	b0 12 e6 49 	call	#0x49e6	
    5906:	0e 48       	mov	r8,	r14	
    5908:	0f 49       	mov	r9,	r15	
    590a:	37 41       	pop	r7		
    590c:	38 41       	pop	r8		
    590e:	39 41       	pop	r9		
    5910:	3a 41       	pop	r10		
    5912:	3b 41       	pop	r11		
    5914:	30 41       	ret			

00005916 <VirtualizeTimerC__0__Timer__startOneShot>:
    5916:	0b 12       	push	r11		
    5918:	09 12       	push	r9		
    591a:	08 12       	push	r8		
    591c:	4b 4f       	mov.b	r15,	r11	
    591e:	08 4d       	mov	r13,	r8	
    5920:	09 4e       	mov	r14,	r9	
    5922:	b0 12 9a 58 	call	#0x589a	
    5926:	4b 4b       	mov.b	r11,	r11	
    5928:	0b 5b       	rla	r11		
    592a:	0c 4b       	mov	r11,	r12	
    592c:	0c 5c       	rla	r12		
    592e:	0c 5c       	rla	r12		
    5930:	0c 5b       	add	r11,	r12	
    5932:	3c 50 82 12 	add	#4738,	r12	;#0x1282
    5936:	8c 4e 00 00 	mov	r14,	0(r12)	;0x0000(r12)
    593a:	8c 4f 02 00 	mov	r15,	2(r12)	;0x0002(r12)
    593e:	8c 48 04 00 	mov	r8,	4(r12)	;0x0004(r12)
    5942:	8c 49 06 00 	mov	r9,	6(r12)	;0x0006(r12)
    5946:	fc d0 03 00 08 00 	bis.b	#3,	8(r12)	;#0x0003, 0x0008(r12)
    594c:	7f 40 0a 00 	mov.b	#10,	r15	;#0x000a
    5950:	b0 12 ee 49 	call	#0x49ee	
    5954:	38 41       	pop	r8		
    5956:	39 41       	pop	r9		
    5958:	3b 41       	pop	r11		
    595a:	30 41       	ret			

0000595c <AMQueueImplP__0__Send__sendDone>:
    595c:	4f 93       	tst.b	r15		
    595e:	15 20       	jnz	$+44     	;abs 0x598a
    5960:	3e 90 a4 11 	cmp	#4516,	r14	;#0x11a4
    5964:	12 20       	jnz	$+38     	;abs 0x598a
    5966:	c2 43 64 11 	mov.b	#0,	&0x1164	;r3 As==00
    596a:	82 93 32 11 	tst	&0x1132	
    596e:	0d 24       	jz	$+28     	;abs 0x598a
    5970:	7d 90 05 00 	cmp.b	#5,	r13	;#0x0005
    5974:	08 20       	jnz	$+18     	;abs 0x5986
    5976:	d2 43 60 11 	mov.b	#1,	&0x1160	;r3 As==01
    597a:	2d 43       	mov	#2,	r13	;r3 As==10
    597c:	0e 43       	clr	r14		
    597e:	5f 43       	mov.b	#1,	r15	;r3 As==01
    5980:	b0 12 16 59 	call	#0x5916	
    5984:	30 41       	ret			
    5986:	c2 43 60 11 	mov.b	#0,	&0x1160	;r3 As==00
    598a:	30 41       	ret			

0000598c <VirtualizeTimerC__0__Timer__startPeriodic>:
    598c:	0b 12       	push	r11		
    598e:	09 12       	push	r9		
    5990:	08 12       	push	r8		
    5992:	4b 4f       	mov.b	r15,	r11	
    5994:	08 4d       	mov	r13,	r8	
    5996:	09 4e       	mov	r14,	r9	
    5998:	b0 12 9a 58 	call	#0x589a	
    599c:	4b 4b       	mov.b	r11,	r11	
    599e:	0b 5b       	rla	r11		
    59a0:	0c 4b       	mov	r11,	r12	
    59a2:	0c 5c       	rla	r12		
    59a4:	0c 5c       	rla	r12		
    59a6:	0c 5b       	add	r11,	r12	
    59a8:	3c 50 82 12 	add	#4738,	r12	;#0x1282
    59ac:	8c 4e 00 00 	mov	r14,	0(r12)	;0x0000(r12)
    59b0:	8c 4f 02 00 	mov	r15,	2(r12)	;0x0002(r12)
    59b4:	8c 48 04 00 	mov	r8,	4(r12)	;0x0004(r12)
    59b8:	8c 49 06 00 	mov	r9,	6(r12)	;0x0006(r12)
    59bc:	5f 4c 08 00 	mov.b	8(r12),	r15	;0x0008(r12)
    59c0:	7f f0 fe ff 	and.b	#-2,	r15	;#0xfffe
    59c4:	6f d3       	bis.b	#2,	r15	;r3 As==10
    59c6:	cc 4f 08 00 	mov.b	r15,	8(r12)	;0x0008(r12)
    59ca:	7f 40 0a 00 	mov.b	#10,	r15	;#0x000a
    59ce:	b0 12 ee 49 	call	#0x49ee	
    59d2:	38 41       	pop	r8		
    59d4:	39 41       	pop	r9		
    59d6:	3b 41       	pop	r11		
    59d8:	30 41       	ret			

000059da <TransformAlarmC__1__set_alarm>:
    59da:	0b 12       	push	r11		
    59dc:	0a 12       	push	r10		
    59de:	09 12       	push	r9		
    59e0:	08 12       	push	r8		
    59e2:	b0 12 9a 58 	call	#0x589a	
    59e6:	08 4e       	mov	r14,	r8	
    59e8:	09 4f       	mov	r15,	r9	
    59ea:	1e 42 8c 11 	mov	&0x118c,r14	
    59ee:	1f 42 8e 11 	mov	&0x118e,r15	
    59f2:	0a 4e       	mov	r14,	r10	
    59f4:	0b 4f       	mov	r15,	r11	
    59f6:	1a 52 fe 11 	add	&0x11fe,r10	
    59fa:	1b 62 00 12 	addc	&0x1200,r11	
    59fe:	09 9f       	cmp	r15,	r9	
    5a00:	09 28       	jnc	$+20     	;abs 0x5a14
    5a02:	02 20       	jnz	$+6      	;abs 0x5a08
    5a04:	08 9e       	cmp	r14,	r8	
    5a06:	06 28       	jnc	$+14     	;abs 0x5a14
    5a08:	0b 9f       	cmp	r15,	r11	
    5a0a:	10 28       	jnc	$+34     	;abs 0x5a2c
    5a0c:	09 20       	jnz	$+20     	;abs 0x5a20
    5a0e:	0a 9e       	cmp	r14,	r10	
    5a10:	0d 28       	jnc	$+28     	;abs 0x5a2c
    5a12:	06 3c       	jmp	$+14     	;abs 0x5a20
    5a14:	0b 9f       	cmp	r15,	r11	
    5a16:	04 28       	jnc	$+10     	;abs 0x5a20
    5a18:	0f 9b       	cmp	r11,	r15	
    5a1a:	27 28       	jnc	$+80     	;abs 0x5a6a
    5a1c:	0a 9e       	cmp	r14,	r10	
    5a1e:	25 2c       	jc	$+76     	;abs 0x5a6a
    5a20:	09 9b       	cmp	r11,	r9	
    5a22:	04 28       	jnc	$+10     	;abs 0x5a2c
    5a24:	0b 99       	cmp	r9,	r11	
    5a26:	21 28       	jnc	$+68     	;abs 0x5a6a
    5a28:	08 9a       	cmp	r10,	r8	
    5a2a:	1f 2c       	jc	$+64     	;abs 0x5a6a
    5a2c:	0c 4a       	mov	r10,	r12	
    5a2e:	0d 4b       	mov	r11,	r13	
    5a30:	0c 88       	sub	r8,	r12	
    5a32:	0d 79       	subc	r9,	r13	
    5a34:	0d 93       	tst	r13		
    5a36:	03 20       	jnz	$+8      	;abs 0x5a3e
    5a38:	3c 90 01 04 	cmp	#1025,	r12	;#0x0401
    5a3c:	18 28       	jnc	$+50     	;abs 0x5a6e
    5a3e:	0e 48       	mov	r8,	r14	
    5a40:	0f 49       	mov	r9,	r15	
    5a42:	3e 50 00 04 	add	#1024,	r14	;#0x0400
    5a46:	0f 63       	adc	r15		
    5a48:	82 4e 8c 11 	mov	r14,	&0x118c	
    5a4c:	82 4f 8e 11 	mov	r15,	&0x118e	
    5a50:	0e 4c       	mov	r12,	r14	
    5a52:	0f 4d       	mov	r13,	r15	
    5a54:	3e 50 00 fc 	add	#-1024,	r14	;#0xfc00
    5a58:	3f 63       	addc	#-1,	r15	;r3 As==11
    5a5a:	82 4e fe 11 	mov	r14,	&0x11fe	
    5a5e:	82 4f 00 12 	mov	r15,	&0x1200	
    5a62:	3c 40 00 04 	mov	#1024,	r12	;#0x0400
    5a66:	0d 43       	clr	r13		
    5a68:	0a 3c       	jmp	$+22     	;abs 0x5a7e
    5a6a:	0c 43       	clr	r12		
    5a6c:	0d 43       	clr	r13		
    5a6e:	82 4a 8c 11 	mov	r10,	&0x118c	
    5a72:	82 4b 8e 11 	mov	r11,	&0x118e	
    5a76:	82 43 fe 11 	mov	#0,	&0x11fe	;r3 As==00
    5a7a:	82 43 00 12 	mov	#0,	&0x1200	;r3 As==00
    5a7e:	0a 4c       	mov	r12,	r10	
    5a80:	0a 5a       	rla	r10		
    5a82:	0a 5a       	rla	r10		
    5a84:	0a 5a       	rla	r10		
    5a86:	0a 5a       	rla	r10		
    5a88:	0a 5a       	rla	r10		
    5a8a:	b0 12 72 46 	call	#0x4672	
    5a8e:	08 58       	rla	r8		
    5a90:	08 58       	rla	r8		
    5a92:	08 58       	rla	r8		
    5a94:	08 58       	rla	r8		
    5a96:	08 58       	rla	r8		
    5a98:	0e 4f       	mov	r15,	r14	
    5a9a:	0e 88       	sub	r8,	r14	
    5a9c:	0e 9a       	cmp	r10,	r14	
    5a9e:	04 2c       	jc	$+10     	;abs 0x5aa8
    5aa0:	0a 8e       	sub	r14,	r10	
    5aa2:	3a 90 03 00 	cmp	#3,	r10	;#0x0003
    5aa6:	06 2c       	jc	$+14     	;abs 0x5ab4
    5aa8:	b0 12 72 46 	call	#0x4672	
    5aac:	2f 53       	incd	r15		
    5aae:	82 4f 96 01 	mov	r15,	&0x0196	
    5ab2:	03 3c       	jmp	$+8      	;abs 0x5aba
    5ab4:	0a 5f       	add	r15,	r10	
    5ab6:	82 4a 96 01 	mov	r10,	&0x0196	
    5aba:	b2 f0 fe ff 86 01 	and	#-2,	&0x0186	;#0xfffe
    5ac0:	b2 d0 10 00 86 01 	bis	#16,	&0x0186	;#0x0010
    5ac6:	38 41       	pop	r8		
    5ac8:	39 41       	pop	r9		
    5aca:	3a 41       	pop	r10		
    5acc:	3b 41       	pop	r11		
    5ace:	30 41       	ret			

00005ad0 <CC2420ControlP__writeFsctrl>:
    5ad0:	0b 12       	push	r11		
    5ad2:	b0 12 d4 49 	call	#0x49d4	
    5ad6:	5b 42 41 13 	mov.b	&0x1341,r11	
    5ada:	b0 12 e6 49 	call	#0x49e6	
    5ade:	0f 4b       	mov	r11,	r15	
    5ae0:	0f 5f       	rla	r15		
    5ae2:	0f 5f       	rla	r15		
    5ae4:	0f 5b       	add	r11,	r15	
    5ae6:	3f 50 2e 01 	add	#302,	r15	;#0x012e
    5aea:	0e 4f       	mov	r15,	r14	
    5aec:	3e d0 00 40 	bis	#16384,	r14	;#0x4000
    5af0:	7f 40 18 00 	mov.b	#24,	r15	;#0x0018
    5af4:	b0 12 92 56 	call	#0x5692	
    5af8:	3b 41       	pop	r11		
    5afa:	30 41       	ret			

00005afc <CC2420ControlP__writeMdmctrl0>:
    5afc:	0b 12       	push	r11		
    5afe:	b0 12 d4 49 	call	#0x49d4	
    5b02:	4b 4f       	mov.b	r15,	r11	
    5b04:	c2 93 fc 11 	tst.b	&0x11fc	
    5b08:	04 24       	jz	$+10     	;abs 0x5b12
    5b0a:	1e 43       	mov	#1,	r14	;r3 As==01
    5b0c:	c2 93 dc 14 	tst.b	&0x14dc	
    5b10:	01 20       	jnz	$+4      	;abs 0x5b14
    5b12:	0e 43       	clr	r14		
    5b14:	4e 4e       	mov.b	r14,	r14	
    5b16:	8e 10       	swpb	r14		
    5b18:	0e 5e       	rla	r14		
    5b1a:	0e 5e       	rla	r14		
    5b1c:	0e 5e       	rla	r14		
    5b1e:	c2 93 0f 12 	tst.b	&0x120f	
    5b22:	04 24       	jz	$+10     	;abs 0x5b2c
    5b24:	1d 43       	mov	#1,	r13	;r3 As==01
    5b26:	c2 93 36 13 	tst.b	&0x1336	
    5b2a:	01 20       	jnz	$+4      	;abs 0x5b2e
    5b2c:	0d 43       	clr	r13		
    5b2e:	3e d0 e2 22 	bis	#8930,	r14	;#0x22e2
    5b32:	0d 5d       	rla	r13		
    5b34:	0d 5d       	rla	r13		
    5b36:	0d 5d       	rla	r13		
    5b38:	0d 5d       	rla	r13		
    5b3a:	0e dd       	bis	r13,	r14	
    5b3c:	7f 40 11 00 	mov.b	#17,	r15	;#0x0011
    5b40:	b0 12 92 56 	call	#0x5692	
    5b44:	4f 4b       	mov.b	r11,	r15	
    5b46:	b0 12 e6 49 	call	#0x49e6	
    5b4a:	3b 41       	pop	r11		
    5b4c:	30 41       	ret			

00005b4e <HplMsp430Usart0P__Usart__setModeSpi.constprop.191>:
    5b4e:	0b 12       	push	r11		
    5b50:	b0 12 d4 49 	call	#0x49d4	
    5b54:	4b 4f       	mov.b	r15,	r11	
    5b56:	5f 43       	mov.b	#1,	r15	;r3 As==01
    5b58:	b0 12 3e 49 	call	#0x493e	
    5b5c:	f2 f0 da ff 70 00 	and.b	#-38,	&0x0070	;#0xffda
    5b62:	5f 43       	mov.b	#1,	r15	;r3 As==01
    5b64:	b0 12 3e 49 	call	#0x493e	
    5b68:	f2 f0 3f 00 04 00 	and.b	#63,	&0x0004	;#0x003f
    5b6e:	3e 40 1b 00 	mov	#27,	r14	;#0x001b
    5b72:	fe f0 ef ff 00 00 	and.b	#-17,	0(r14)	;#0xffef, 0x0000(r14)
    5b78:	fe f0 df ff 00 00 	and.b	#-33,	0(r14)	;#0xffdf, 0x0000(r14)
    5b7e:	3d 40 30 11 	mov	#4400,	r13	;#0x1130
    5b82:	6f 4d       	mov.b	@r13,	r15	
    5b84:	7f d0 05 00 	bis.b	#5,	r15	;#0x0005
    5b88:	c2 4f 70 00 	mov.b	r15,	&0x0070	
    5b8c:	d2 4d 01 00 71 00 	mov.b	1(r13),	&0x0071	;0x0001(r13)
    5b92:	1d 42 2e 11 	mov	&0x112e,r13	
    5b96:	c2 4d 74 00 	mov.b	r13,	&0x0074	
    5b9a:	8d 10       	swpb	r13		
    5b9c:	4d 4d       	mov.b	r13,	r13	
    5b9e:	c2 4d 75 00 	mov.b	r13,	&0x0075	
    5ba2:	c2 43 73 00 	mov.b	#0,	&0x0073	;r3 As==00
    5ba6:	ee d3 00 00 	bis.b	#2,	0(r14)	;r3 As==10, 0x0000(r14)
    5baa:	ee d2 00 00 	bis.b	#4,	0(r14)	;r2 As==10, 0x0000(r14)
    5bae:	fe d2 00 00 	bis.b	#8,	0(r14)	;r2 As==11, 0x0000(r14)
    5bb2:	f2 d0 40 00 04 00 	bis.b	#64,	&0x0004	;#0x0040
    5bb8:	4f 43       	clr.b	r15		
    5bba:	b0 12 3e 49 	call	#0x493e	
    5bbe:	f2 f0 3f 00 02 00 	and.b	#63,	&0x0002	;#0x003f
    5bc4:	f2 f0 3f 00 00 00 	and.b	#63,	&0x0000	;#0x003f
    5bca:	4f 4b       	mov.b	r11,	r15	
    5bcc:	b0 12 e6 49 	call	#0x49e6	
    5bd0:	3b 41       	pop	r11		
    5bd2:	30 41       	ret			

00005bd4 <StateImplP__State__requestState.constprop.192>:
    5bd4:	0b 12       	push	r11		
    5bd6:	4b 4f       	mov.b	r15,	r11	
    5bd8:	b0 12 d4 49 	call	#0x49d4	
    5bdc:	4e 4b       	mov.b	r11,	r14	
    5bde:	3e 50 28 13 	add	#4904,	r14	;#0x1328
    5be2:	ce 93 00 00 	tst.b	0(r14)		;0x0000(r14)
    5be6:	04 20       	jnz	$+10     	;abs 0x5bf0
    5be8:	de 43 00 00 	mov.b	#1,	0(r14)	;r3 As==01, 0x0000(r14)
    5bec:	4b 43       	clr.b	r11		
    5bee:	01 3c       	jmp	$+4      	;abs 0x5bf2
    5bf0:	5b 43       	mov.b	#1,	r11	;r3 As==01
    5bf2:	b0 12 e6 49 	call	#0x49e6	
    5bf6:	4f 4b       	mov.b	r11,	r15	
    5bf8:	3b 41       	pop	r11		
    5bfa:	30 41       	ret			

00005bfc <CC2420SpiP__Resource__request>:
    5bfc:	0b 12       	push	r11		
    5bfe:	0a 12       	push	r10		
    5c00:	4b 4f       	mov.b	r15,	r11	
    5c02:	b0 12 d4 49 	call	#0x49d4	
    5c06:	4a 4f       	mov.b	r15,	r10	
    5c08:	4f 43       	clr.b	r15		
    5c0a:	b0 12 d4 5b 	call	#0x5bd4	
    5c0e:	4f 93       	tst.b	r15		
    5c10:	2f 20       	jnz	$+96     	;abs 0x5c70
    5c12:	c2 4b 23 11 	mov.b	r11,	&0x1123	
    5c16:	c2 93 20 11 	tst.b	&0x1120	
    5c1a:	3c 20       	jnz	$+122    	;abs 0x5c94
    5c1c:	f2 90 03 00 7e 11 	cmp.b	#3,	&0x117e	;#0x0003
    5c22:	38 20       	jnz	$+114    	;abs 0x5c94
    5c24:	7f 40 05 00 	mov.b	#5,	r15	;#0x0005
    5c28:	b0 12 ee 49 	call	#0x49ee	
    5c2c:	2c 3c       	jmp	$+90     	;abs 0x5c86
    5c2e:	d2 43 7e 11 	mov.b	#1,	&0x117e	;r3 As==01
    5c32:	c2 43 40 13 	mov.b	#0,	&0x1340	;r3 As==00
    5c36:	b0 12 da 4a 	call	#0x4ada	
    5c3a:	25 3c       	jmp	$+76     	;abs 0x5c86
    5c3c:	c2 93 40 13 	tst.b	&0x1340	
    5c40:	22 24       	jz	$+70     	;abs 0x5c86
    5c42:	1e 43       	mov	#1,	r14	;r3 As==01
    5c44:	f2 93 5a 12 	cmp.b	#-1,	&0x125a	;r3 As==11
    5c48:	04 20       	jnz	$+10     	;abs 0x5c52
    5c4a:	c2 93 21 11 	tst.b	&0x1121	
    5c4e:	01 24       	jz	$+4      	;abs 0x5c52
    5c50:	0e 43       	clr	r14		
    5c52:	0e 93       	tst	r14		
    5c54:	18 20       	jnz	$+50     	;abs 0x5c86
    5c56:	f2 93 22 11 	cmp.b	#-1,	&0x1122	;r3 As==11
    5c5a:	03 20       	jnz	$+8      	;abs 0x5c62
    5c5c:	c2 43 22 11 	mov.b	#0,	&0x1122	;r3 As==00
    5c60:	04 3c       	jmp	$+10     	;abs 0x5c6a
    5c62:	5e 42 21 11 	mov.b	&0x1121,r14	
    5c66:	ce 43 5a 12 	mov.b	#0,	4698(r14);r3 As==00, 0x125a(r14)
    5c6a:	c2 43 21 11 	mov.b	#0,	&0x1121	;r3 As==00
    5c6e:	0b 3c       	jmp	$+24     	;abs 0x5c86
    5c70:	1e 43       	mov	#1,	r14	;r3 As==01
    5c72:	4d 4b       	mov.b	r11,	r13	
    5c74:	7d f0 0f 00 	and.b	#15,	r13	;#0x000f
    5c78:	4d 93       	tst.b	r13		
    5c7a:	03 24       	jz	$+8      	;abs 0x5c82
    5c7c:	0e 5e       	rla	r14		
    5c7e:	7d 53       	add.b	#-1,	r13	;r3 As==11
    5c80:	fb 3f       	jmp	$-8      	;abs 0x5c78
    5c82:	c2 de 80 11 	bis.b	r14,	&0x1180	
    5c86:	4f 4a       	mov.b	r10,	r15	
    5c88:	b0 12 e6 49 	call	#0x49e6	
    5c8c:	4f 43       	clr.b	r15		
    5c8e:	3a 41       	pop	r10		
    5c90:	3b 41       	pop	r11		
    5c92:	30 41       	ret			
    5c94:	c2 93 7e 11 	tst.b	&0x117e	
    5c98:	d1 23       	jnz	$-92     	;abs 0x5c3c
    5c9a:	c9 3f       	jmp	$-108    	;abs 0x5c2e

00005c9c <CC2420SpiP__Resource__immediateRequest>:
    5c9c:	0b 12       	push	r11		
    5c9e:	0a 12       	push	r10		
    5ca0:	4b 4f       	mov.b	r15,	r11	
    5ca2:	b0 12 d4 49 	call	#0x49d4	
    5ca6:	4a 4f       	mov.b	r15,	r10	
    5ca8:	4f 43       	clr.b	r15		
    5caa:	b0 12 d4 5b 	call	#0x5bd4	
    5cae:	4f 93       	tst.b	r15		
    5cb0:	06 24       	jz	$+14     	;abs 0x5cbe
    5cb2:	4f 4a       	mov.b	r10,	r15	
    5cb4:	b0 12 e6 49 	call	#0x49e6	
    5cb8:	7f 40 05 00 	mov.b	#5,	r15	;#0x0005
    5cbc:	1e 3c       	jmp	$+62     	;abs 0x5cfa
    5cbe:	c2 93 20 11 	tst.b	&0x1120	
    5cc2:	1e 20       	jnz	$+62     	;abs 0x5d00
    5cc4:	f2 90 03 00 7e 11 	cmp.b	#3,	&0x117e	;#0x0003
    5cca:	1a 20       	jnz	$+54     	;abs 0x5d00
    5ccc:	0b 3c       	jmp	$+24     	;abs 0x5ce4
    5cce:	e2 43 7e 11 	mov.b	#2,	&0x117e	;r3 As==10
    5cd2:	c2 43 40 13 	mov.b	#0,	&0x1340	;r3 As==00
    5cd6:	b0 12 da 4a 	call	#0x4ada	
    5cda:	c2 93 20 11 	tst.b	&0x1120	
    5cde:	06 20       	jnz	$+14     	;abs 0x5cec
    5ce0:	b0 12 4e 5b 	call	#0x5b4e	
    5ce4:	c2 4b 23 11 	mov.b	r11,	&0x1123	
    5ce8:	4b 43       	clr.b	r11		
    5cea:	03 3c       	jmp	$+8      	;abs 0x5cf2
    5cec:	c2 43 7e 11 	mov.b	#0,	&0x117e	;r3 As==00
    5cf0:	0a 3c       	jmp	$+22     	;abs 0x5d06
    5cf2:	4f 4a       	mov.b	r10,	r15	
    5cf4:	b0 12 e6 49 	call	#0x49e6	
    5cf8:	4f 4b       	mov.b	r11,	r15	
    5cfa:	3a 41       	pop	r10		
    5cfc:	3b 41       	pop	r11		
    5cfe:	30 41       	ret			
    5d00:	c2 93 7e 11 	tst.b	&0x117e	
    5d04:	e4 27       	jz	$-54     	;abs 0x5cce
    5d06:	b0 12 d4 49 	call	#0x49d4	
    5d0a:	c2 43 28 13 	mov.b	#0,	&0x1328	;r3 As==00
    5d0e:	b0 12 e6 49 	call	#0x49e6	
    5d12:	5b 43       	mov.b	#1,	r11	;r3 As==01
    5d14:	ee 3f       	jmp	$-34     	;abs 0x5cf2

00005d16 <CC2420ReceiveP__beginReceive>:
    5d16:	a2 43 f6 11 	mov	#2,	&0x11f6	;r3 As==10
    5d1a:	d2 43 06 12 	mov.b	#1,	&0x1206	;r3 As==01
    5d1e:	e2 92 23 11 	cmp.b	#4,	&0x1123	;r2 As==10
    5d22:	05 24       	jz	$+12     	;abs 0x5d2e
    5d24:	6f 42       	mov.b	#4,	r15	;r2 As==10
    5d26:	b0 12 9c 5c 	call	#0x5c9c	
    5d2a:	4f 93       	tst.b	r15		
    5d2c:	03 20       	jnz	$+8      	;abs 0x5d34
    5d2e:	b0 12 40 53 	call	#0x5340	
    5d32:	30 41       	ret			
    5d34:	6f 42       	mov.b	#4,	r15	;r2 As==10
    5d36:	b0 12 fc 5b 	call	#0x5bfc	
    5d3a:	30 41       	ret			

00005d3c <CC2420ReceiveP__waitForNextPacket>:
    5d3c:	0b 12       	push	r11		
    5d3e:	b0 12 d4 49 	call	#0x49d4	
    5d42:	4b 4f       	mov.b	r15,	r11	
    5d44:	82 93 f6 11 	tst	&0x11f6	
    5d48:	18 24       	jz	$+50     	;abs 0x5d7a
    5d4a:	c2 43 06 12 	mov.b	#0,	&0x1206	;r3 As==00
    5d4e:	5e 42 fd 11 	mov.b	&0x11fd,r14	
    5d52:	4e 93       	tst.b	r14		
    5d54:	03 24       	jz	$+8      	;abs 0x5d5c
    5d56:	f2 b2 20 00 	bit.b	#8,	&0x0020	;r2 As==11
    5d5a:	05 20       	jnz	$+12     	;abs 0x5d66
    5d5c:	d2 b3 20 00 	bit.b	#1,	&0x0020	;r3 As==01
    5d60:	08 20       	jnz	$+18     	;abs 0x5d72
    5d62:	4e 93       	tst.b	r14		
    5d64:	03 24       	jz	$+8      	;abs 0x5d6c
    5d66:	7e 53       	add.b	#-1,	r14	;r3 As==11
    5d68:	c2 4e fd 11 	mov.b	r14,	&0x11fd	
    5d6c:	b0 12 16 5d 	call	#0x5d16	
    5d70:	07 3c       	jmp	$+16     	;abs 0x5d80
    5d72:	92 43 f6 11 	mov	#1,	&0x11f6	;r3 As==01
    5d76:	c2 43 fd 11 	mov.b	#0,	&0x11fd	;r3 As==00
    5d7a:	6f 42       	mov.b	#4,	r15	;r2 As==10
    5d7c:	b0 12 92 53 	call	#0x5392	
    5d80:	4f 4b       	mov.b	r11,	r15	
    5d82:	b0 12 e6 49 	call	#0x49e6	
    5d86:	3b 41       	pop	r11		
    5d88:	30 41       	ret			

00005d8a <CC2420ReceiveP__flush>:
    5d8a:	b0 12 5a 47 	call	#0x475a	
    5d8e:	b0 12 84 53 	call	#0x5384	
    5d92:	b0 12 80 52 	call	#0x5280	
    5d96:	7f 42       	mov.b	#8,	r15	;r2 As==11
    5d98:	b0 12 30 52 	call	#0x5230	
    5d9c:	7f 42       	mov.b	#8,	r15	;r2 As==11
    5d9e:	b0 12 30 52 	call	#0x5230	
    5da2:	b0 12 84 53 	call	#0x5384	
    5da6:	6f 42       	mov.b	#4,	r15	;r2 As==10
    5da8:	b0 12 92 53 	call	#0x5392	
    5dac:	b0 12 3c 5d 	call	#0x5d3c	
    5db0:	30 41       	ret			

00005db2 <Msp430SpiNoDmaP__0__signalDone>:
    5db2:	0b 12       	push	r11		
    5db4:	0a 12       	push	r10		
    5db6:	09 12       	push	r9		
    5db8:	08 12       	push	r8		
    5dba:	07 12       	push	r7		
    5dbc:	17 42 1e 13 	mov	&0x131e,r7	
    5dc0:	c2 93 62 12 	tst.b	&0x1262	
    5dc4:	02 24       	jz	$+6      	;abs 0x5dca
    5dc6:	30 40 b2 60 	br	#0x60b2	
    5dca:	1f 42 64 12 	mov	&0x1264,r15	
    5dce:	3f b0 40 00 	bit	#64,	r15	;#0x0040
    5dd2:	02 20       	jnz	$+6      	;abs 0x5dd8
    5dd4:	30 40 4a 60 	br	#0x604a	
    5dd8:	7f f0 bf ff 	and.b	#-65,	r15	;#0xffbf
    5ddc:	7f 90 3f 00 	cmp.b	#63,	r15	;#0x003f
    5de0:	02 24       	jz	$+6      	;abs 0x5de6
    5de2:	30 40 b2 60 	br	#0x60b2	
    5de6:	1b 42 88 11 	mov	&0x1188,r11	
    5dea:	6e 4b       	mov.b	@r11,	r14	
    5dec:	c2 4e f8 11 	mov.b	r14,	&0x11f8	
    5df0:	1f 42 f6 11 	mov	&0x11f6,r15	
    5df4:	3f 90 05 00 	cmp	#5,	r15	;#0x0005
    5df8:	39 24       	jz	$+116    	;abs 0x5e6c
    5dfa:	3f 90 06 00 	cmp	#6,	r15	;#0x0006
    5dfe:	84 24       	jz	$+266    	;abs 0x5f08
    5e00:	2f 93       	cmp	#2,	r15	;r3 As==10
    5e02:	02 24       	jz	$+6      	;abs 0x5e08
    5e04:	30 40 3a 60 	br	#0x603a	
    5e08:	b2 40 05 00 f6 11 	mov	#5,	&0x11f6	;#0x0005
    5e0e:	5d 42 d8 11 	mov.b	&0x11d8,r13	
    5e12:	4d 9e       	cmp.b	r14,	r13	
    5e14:	27 24       	jz	$+80     	;abs 0x5e64
    5e16:	26 28       	jnc	$+78     	;abs 0x5e64
    5e18:	f2 b2 20 00 	bit.b	#8,	&0x0020	;r2 As==11
    5e1c:	08 20       	jnz	$+18     	;abs 0x5e2e
    5e1e:	d2 b3 20 00 	bit.b	#1,	&0x0020	;r3 As==01
    5e22:	05 20       	jnz	$+12     	;abs 0x5e2e
    5e24:	4f 4e       	mov.b	r14,	r15	
    5e26:	7f e3       	xor.b	#-1,	r15	;r3 As==11
    5e28:	4f 5d       	add.b	r13,	r15	
    5e2a:	c2 4f d8 11 	mov.b	r15,	&0x11d8	
    5e2e:	7e 90 2a 00 	cmp.b	#42,	r14	;#0x002a
    5e32:	18 2c       	jc	$+50     	;abs 0x5e64
    5e34:	4e 93       	tst.b	r14		
    5e36:	0e 24       	jz	$+30     	;abs 0x5e54
    5e38:	0f 4b       	mov	r11,	r15	
    5e3a:	1f 53       	inc	r15		
    5e3c:	7e 92       	cmp.b	#8,	r14	;r2 As==11
    5e3e:	03 28       	jnc	$+8      	;abs 0x5e46
    5e40:	7e 40 07 00 	mov.b	#7,	r14	;#0x0007
    5e44:	03 3c       	jmp	$+8      	;abs 0x5e4c
    5e46:	b2 40 06 00 f6 11 	mov	#6,	&0x11f6	;#0x0006
    5e4c:	b0 12 aa 52 	call	#0x52aa	
    5e50:	30 40 b2 60 	br	#0x60b2	
    5e54:	c2 43 06 12 	mov.b	#0,	&0x1206	;r3 As==00
    5e58:	b0 12 84 53 	call	#0x5384	
    5e5c:	6f 42       	mov.b	#4,	r15	;r2 As==10
    5e5e:	b0 12 92 53 	call	#0x5392	
    5e62:	e8 3c       	jmp	$+466    	;abs 0x6034
    5e64:	b0 12 8a 5d 	call	#0x5d8a	
    5e68:	30 40 b2 60 	br	#0x60b2	
    5e6c:	b2 40 06 00 f6 11 	mov	#6,	&0x11f6	;#0x0006
    5e72:	c2 93 0f 12 	tst.b	&0x120f	
    5e76:	41 24       	jz	$+132    	;abs 0x5efa
    5e78:	c2 93 36 13 	tst.b	&0x1336	
    5e7c:	3e 20       	jnz	$+126    	;abs 0x5efa
    5e7e:	5f 4b 02 00 	mov.b	2(r11),	r15	;0x0002(r11)
    5e82:	8f 10       	swpb	r15		
    5e84:	5e 4b 01 00 	mov.b	1(r11),	r14	;0x0001(r11)
    5e88:	0f de       	bis	r14,	r15	
    5e8a:	3f f0 20 00 	and	#32,	r15	;#0x0020
    5e8e:	35 24       	jz	$+108    	;abs 0x5efa
    5e90:	5a 4b 07 00 	mov.b	7(r11),	r10	;0x0007(r11)
    5e94:	8a 10       	swpb	r10		
    5e96:	5f 4b 06 00 	mov.b	6(r11),	r15	;0x0006(r11)
    5e9a:	0a df       	bis	r15,	r10	
    5e9c:	b0 12 d4 49 	call	#0x49d4	
    5ea0:	19 42 60 12 	mov	&0x1260,r9	
    5ea4:	b0 12 e6 49 	call	#0x49e6	
    5ea8:	0a 99       	cmp	r9,	r10	
    5eaa:	08 24       	jz	$+18     	;abs 0x5ebc
    5eac:	5f 4b 07 00 	mov.b	7(r11),	r15	;0x0007(r11)
    5eb0:	8f 10       	swpb	r15		
    5eb2:	5e 4b 06 00 	mov.b	6(r11),	r14	;0x0006(r11)
    5eb6:	0f de       	bis	r14,	r15	
    5eb8:	3f 93       	cmp	#-1,	r15	;r3 As==11
    5eba:	1f 20       	jnz	$+64     	;abs 0x5efa
    5ebc:	5f 4b 02 00 	mov.b	2(r11),	r15	;0x0002(r11)
    5ec0:	8f 10       	swpb	r15		
    5ec2:	5e 4b 01 00 	mov.b	1(r11),	r14	;0x0001(r11)
    5ec6:	0f de       	bis	r14,	r15	
    5ec8:	3f f0 07 00 	and	#7,	r15	;#0x0007
    5ecc:	1f 93       	cmp	#1,	r15	;r3 As==01
    5ece:	15 20       	jnz	$+44     	;abs 0x5efa
    5ed0:	b0 12 84 53 	call	#0x5384	
    5ed4:	b0 12 80 52 	call	#0x5280	
    5ed8:	7f 40 0a 00 	mov.b	#10,	r15	;#0x000a
    5edc:	b0 12 30 52 	call	#0x5230	
    5ee0:	b0 12 84 53 	call	#0x5384	
    5ee4:	b0 12 80 52 	call	#0x5280	
    5ee8:	5e 42 f8 11 	mov.b	&0x11f8,r14	
    5eec:	7e 50 f9 ff 	add.b	#-7,	r14	;#0xfff9
    5ef0:	0f 4b       	mov	r11,	r15	
    5ef2:	3f 52       	add	#8,	r15	;r2 As==11
    5ef4:	b0 12 d6 52 	call	#0x52d6	
    5ef8:	dc 3c       	jmp	$+442    	;abs 0x60b2
    5efa:	5e 42 f8 11 	mov.b	&0x11f8,r14	
    5efe:	7e 50 f9 ff 	add.b	#-7,	r14	;#0xfff9
    5f02:	0f 4b       	mov	r11,	r15	
    5f04:	3f 52       	add	#8,	r15	;r2 As==11
    5f06:	a2 3f       	jmp	$-186    	;abs 0x5e4c
    5f08:	b0 12 84 53 	call	#0x5384	
    5f0c:	c2 93 fd 11 	tst.b	&0x11fd	
    5f10:	03 20       	jnz	$+8      	;abs 0x5f18
    5f12:	6f 42       	mov.b	#4,	r15	;r2 As==10
    5f14:	b0 12 92 53 	call	#0x5392	
    5f18:	c2 93 fd 11 	tst.b	&0x11fd	
    5f1c:	03 24       	jz	$+8      	;abs 0x5f24
    5f1e:	f2 b2 20 00 	bit.b	#8,	&0x0020	;r2 As==11
    5f22:	0b 20       	jnz	$+24     	;abs 0x5f3a
    5f24:	d2 b3 20 00 	bit.b	#1,	&0x0020	;r3 As==01
    5f28:	08 24       	jz	$+18     	;abs 0x5f3a
    5f2a:	5a 42 a0 14 	mov.b	&0x14a0,r10	
    5f2e:	4a 93       	tst.b	r10		
    5f30:	04 24       	jz	$+10     	;abs 0x5f3a
    5f32:	f2 90 0b 00 f8 11 	cmp.b	#11,	&0x11f8	;#0x000b
    5f38:	0e 2c       	jc	$+30     	;abs 0x5f56
    5f3a:	1f 42 88 11 	mov	&0x1188,r15	
    5f3e:	cf 43 2d 00 	mov.b	#0,	45(r15)	;r3 As==00, 0x002d(r15)
    5f42:	cf 43 31 00 	mov.b	#0,	49(r15)	;r3 As==00, 0x0031(r15)
    5f46:	cf 43 30 00 	mov.b	#0,	48(r15)	;r3 As==00, 0x0030(r15)
    5f4a:	cf 43 2f 00 	mov.b	#0,	47(r15)	;r3 As==00, 0x002f(r15)
    5f4e:	ff 40 80 ff 2e 00 	mov.b	#-128,	46(r15)	;#0xff80, 0x002e(r15)
    5f54:	37 3c       	jmp	$+112    	;abs 0x5fc4
    5f56:	59 42 a6 14 	mov.b	&0x14a6,r9	
    5f5a:	5a 93       	cmp.b	#1,	r10	;r3 As==01
    5f5c:	19 20       	jnz	$+52     	;abs 0x5f90
    5f5e:	0f 49       	mov	r9,	r15	
    5f60:	0f 5f       	rla	r15		
    5f62:	0f 5f       	rla	r15		
    5f64:	3f 50 4a 14 	add	#5194,	r15	;#0x144a
    5f68:	28 4f       	mov	@r15,	r8	
    5f6a:	1c 4f 02 00 	mov	2(r15),	r12	;0x0002(r15)
    5f6e:	1d 42 88 11 	mov	&0x1188,r13	
    5f72:	cd 48 31 00 	mov.b	r8,	49(r13)	;0x0031(r13)
    5f76:	0e 4c       	mov	r12,	r14	
    5f78:	0f 48       	mov	r8,	r15	
    5f7a:	8f 10       	swpb	r15		
    5f7c:	8e 10       	swpb	r14		
    5f7e:	4f ee       	xor.b	r14,	r15	
    5f80:	0f ee       	xor	r14,	r15	
    5f82:	cd 4f 30 00 	mov.b	r15,	48(r13)	;0x0030(r13)
    5f86:	cd 4c 2f 00 	mov.b	r12,	47(r13)	;0x002f(r13)
    5f8a:	8c 10       	swpb	r12		
    5f8c:	cd 4c 2e 00 	mov.b	r12,	46(r13)	;0x002e(r13)
    5f90:	19 53       	inc	r9		
    5f92:	79 f0 07 00 	and.b	#7,	r9	;#0x0007
    5f96:	c2 49 a6 14 	mov.b	r9,	&0x14a6	
    5f9a:	7a 53       	add.b	#-1,	r10	;r3 As==11
    5f9c:	c2 4a a0 14 	mov.b	r10,	&0x14a0	
    5fa0:	11 24       	jz	$+36     	;abs 0x5fc4
    5fa2:	1f 42 88 11 	mov	&0x1188,r15	
    5fa6:	cf 43 2d 00 	mov.b	#0,	45(r15)	;r3 As==00, 0x002d(r15)
    5faa:	cf 43 31 00 	mov.b	#0,	49(r15)	;r3 As==00, 0x0031(r15)
    5fae:	cf 43 30 00 	mov.b	#0,	48(r15)	;r3 As==00, 0x0030(r15)
    5fb2:	cf 43 2f 00 	mov.b	#0,	47(r15)	;r3 As==00, 0x002f(r15)
    5fb6:	ff 40 80 ff 2e 00 	mov.b	#-128,	46(r15)	;#0xff80, 0x002e(r15)
    5fbc:	c2 43 a6 14 	mov.b	#0,	&0x14a6	;r3 As==00
    5fc0:	c2 43 a0 14 	mov.b	#0,	&0x14a0	;r3 As==00
    5fc4:	5f 42 f8 11 	mov.b	&0x11f8,r15	
    5fc8:	0f 5b       	add	r11,	r15	
    5fca:	cf 93 00 00 	tst.b	0(r15)		;0x0000(r15)
    5fce:	32 34       	jge	$+102    	;abs 0x6034
    5fd0:	07 93       	tst	r7		
    5fd2:	30 24       	jz	$+98     	;abs 0x6034
    5fd4:	5f 4b 02 00 	mov.b	2(r11),	r15	;0x0002(r11)
    5fd8:	8f 10       	swpb	r15		
    5fda:	5f db 01 00 	bis.b	1(r11),	r15	;0x0001(r11)
    5fde:	7f f0 07 00 	and.b	#7,	r15	;#0x0007
    5fe2:	1d 42 88 11 	mov	&0x1188,r13	
    5fe6:	6f 93       	cmp.b	#2,	r15	;r3 As==10
    5fe8:	1f 20       	jnz	$+64     	;abs 0x6028
    5fea:	1f 42 3a 12 	mov	&0x123a,r15	
    5fee:	0f 93       	tst	r15		
    5ff0:	21 24       	jz	$+68     	;abs 0x6034
    5ff2:	b2 90 07 00 70 11 	cmp	#7,	&0x1170	;#0x0007
    5ff8:	1d 20       	jnz	$+60     	;abs 0x6034
    5ffa:	df 9d 03 00 03 00 	cmp.b	3(r13),	3(r15)	;0x0003(r13), 0x0003(r15)
    6000:	19 20       	jnz	$+52     	;abs 0x6034
    6002:	b2 f0 ef ff 82 01 	and	#-17,	&0x0182	;#0xffef
    6008:	6e 4d       	mov.b	@r13,	r14	
    600a:	df 43 2c 00 	mov.b	#1,	44(r15)	;r3 As==01, 0x002c(r15)
    600e:	0e 5d       	add	r13,	r14	
    6010:	df 4e ff ff 28 00 	mov.b	-1(r14),40(r15)	;0xffff(r14), 0x0028(r15)
    6016:	6e 4e       	mov.b	@r14,	r14	
    6018:	7e f0 7f 00 	and.b	#127,	r14	;#0x007f
    601c:	cf 4e 29 00 	mov.b	r14,	41(r15)	;0x0029(r15)
    6020:	4f 43       	clr.b	r15		
    6022:	b0 12 6a 53 	call	#0x536a	
    6026:	06 3c       	jmp	$+14     	;abs 0x6034
    6028:	5f 93       	cmp.b	#1,	r15	;r3 As==01
    602a:	04 20       	jnz	$+10     	;abs 0x6034
    602c:	7f 42       	mov.b	#8,	r15	;r2 As==11
    602e:	b0 12 ee 49 	call	#0x49ee	
    6032:	3f 3c       	jmp	$+128    	;abs 0x60b2
    6034:	b0 12 3c 5d 	call	#0x5d3c	
    6038:	3c 3c       	jmp	$+122    	;abs 0x60b2
    603a:	c2 43 06 12 	mov.b	#0,	&0x1206	;r3 As==00
    603e:	b0 12 84 53 	call	#0x5384	
    6042:	6f 42       	mov.b	#4,	r15	;r2 As==10
    6044:	b0 12 92 53 	call	#0x5392	
    6048:	34 3c       	jmp	$+106    	;abs 0x60b2
    604a:	7f 90 3e 00 	cmp.b	#62,	r15	;#0x003e
    604e:	31 20       	jnz	$+100    	;abs 0x60b2
    6050:	b0 12 84 53 	call	#0x5384	
    6054:	b2 92 70 11 	cmp	#8,	&0x1170	;r2 As==11
    6058:	11 20       	jnz	$+36     	;abs 0x607c
    605a:	b0 12 80 52 	call	#0x5280	
    605e:	7f 40 09 00 	mov.b	#9,	r15	;#0x0009
    6062:	b0 12 30 52 	call	#0x5230	
    6066:	b0 12 84 53 	call	#0x5384	
    606a:	b0 12 4e 54 	call	#0x544e	
    606e:	92 43 70 11 	mov	#1,	&0x1170	;r3 As==01
    6072:	7f 40 03 00 	mov.b	#3,	r15	;#0x0003
    6076:	b0 12 50 53 	call	#0x5350	
    607a:	1b 3c       	jmp	$+56     	;abs 0x60b2
    607c:	c2 93 18 15 	tst.b	&0x1518	
    6080:	05 20       	jnz	$+12     	;abs 0x608c
    6082:	a2 42 70 11 	mov	#4,	&0x1170	;r2 As==10
    6086:	b0 12 fa 55 	call	#0x55fa	
    608a:	13 3c       	jmp	$+40     	;abs 0x60b2
    608c:	b0 12 4e 54 	call	#0x544e	
    6090:	b2 40 03 00 70 11 	mov	#3,	&0x1170	;#0x0003
    6096:	b0 12 a8 45 	call	#0x45a8	
    609a:	3e 40 36 01 	mov	#310,	r14	;#0x0136
    609e:	b0 12 b2 7a 	call	#0x7ab2	
    60a2:	0e 4f       	mov	r15,	r14	
    60a4:	3e 50 0b 00 	add	#11,	r14	;#0x000b
    60a8:	82 4e a2 11 	mov	r14,	&0x11a2	
    60ac:	0f 43       	clr	r15		
    60ae:	b0 12 88 55 	call	#0x5588	
    60b2:	37 41       	pop	r7		
    60b4:	38 41       	pop	r8		
    60b6:	39 41       	pop	r9		
    60b8:	3a 41       	pop	r10		
    60ba:	3b 41       	pop	r11		
    60bc:	30 41       	ret			

000060be <CC2420TinyosNetworkP__ActiveSend__send.isra.172>:
    60be:	0b 12       	push	r11		
    60c0:	0a 12       	push	r10		
    60c2:	0b 4f       	mov	r15,	r11	
    60c4:	b0 12 d4 49 	call	#0x49d4	
    60c8:	4a 4f       	mov.b	r15,	r10	
    60ca:	0f 4b       	mov	r11,	r15	
    60cc:	b0 12 14 47 	call	#0x4714	
    60d0:	ff 40 3f 00 00 00 	mov.b	#63,	0(r15)	;#0x003f, 0x0000(r15)
    60d6:	4f 4a       	mov.b	r10,	r15	
    60d8:	b0 12 e6 49 	call	#0x49e6	
    60dc:	82 43 ae 14 	mov	#0,	&0x14ae	;r3 As==00
    60e0:	6f 43       	mov.b	#2,	r15	;r3 As==10
    60e2:	b0 12 d4 5b 	call	#0x5bd4	
    60e6:	4f 93       	tst.b	r15		
    60e8:	6e 20       	jnz	$+222    	;abs 0x61c6
    60ea:	5f 42 43 13 	mov.b	&0x1343,r15	
    60ee:	4e 4f       	mov.b	r15,	r14	
    60f0:	5e 53       	inc.b	r14		
    60f2:	c2 4e 43 13 	mov.b	r14,	&0x1343	
    60f6:	cb 4f 03 00 	mov.b	r15,	3(r11)	;0x0003(r11)
    60fa:	b0 12 d4 49 	call	#0x49d4	
    60fe:	4a 4f       	mov.b	r15,	r10	
    6100:	6f 43       	mov.b	#2,	r15	;r3 As==10
    6102:	b0 12 60 52 	call	#0x5260	
    6106:	4f 93       	tst.b	r15		
    6108:	0b 20       	jnz	$+24     	;abs 0x6120
    610a:	4f 4a       	mov.b	r10,	r15	
    610c:	b0 12 e6 49 	call	#0x49e6	
    6110:	b0 12 d4 49 	call	#0x49d4	
    6114:	c2 43 2a 13 	mov.b	#0,	&0x132a	;r3 As==00
    6118:	b0 12 e6 49 	call	#0x49e6	
    611c:	5f 43       	mov.b	#1,	r15	;r3 As==01
    611e:	55 3c       	jmp	$+172    	;abs 0x61ca
    6120:	6f 42       	mov.b	#4,	r15	;r2 As==10
    6122:	b0 12 a0 57 	call	#0x57a0	
    6126:	82 4b 6e 12 	mov	r11,	&0x126e	
    612a:	4f 4a       	mov.b	r10,	r15	
    612c:	b0 12 e6 49 	call	#0x49e6	
    6130:	5f 4b 02 00 	mov.b	2(r11),	r15	;0x0002(r11)
    6134:	8f 10       	swpb	r15		
    6136:	5e 4b 01 00 	mov.b	1(r11),	r14	;0x0001(r11)
    613a:	0f de       	bis	r14,	r15	
    613c:	3f f0 20 cc 	and	#-13280,r15	;#0xcc20
    6140:	4e 4f       	mov.b	r15,	r14	
    6142:	3e d0 41 00 	bis	#65,	r14	;#0x0041
    6146:	8f 10       	swpb	r15		
    6148:	4f 4f       	mov.b	r15,	r15	
    614a:	8f 10       	swpb	r15		
    614c:	0e df       	bis	r15,	r14	
    614e:	cb 4e 01 00 	mov.b	r14,	1(r11)	;0x0001(r11)
    6152:	8e 10       	swpb	r14		
    6154:	cb 4e 02 00 	mov.b	r14,	2(r11)	;0x0002(r11)
    6158:	cb 43 2c 00 	mov.b	#0,	44(r11)	;r3 As==00, 0x002c(r11)
    615c:	cb 43 28 00 	mov.b	#0,	40(r11)	;r3 As==00, 0x0028(r11)
    6160:	cb 43 29 00 	mov.b	#0,	41(r11)	;r3 As==00, 0x0029(r11)
    6164:	cb 43 31 00 	mov.b	#0,	49(r11)	;r3 As==00, 0x0031(r11)
    6168:	cb 43 30 00 	mov.b	#0,	48(r11)	;r3 As==00, 0x0030(r11)
    616c:	cb 43 2f 00 	mov.b	#0,	47(r11)	;r3 As==00, 0x002f(r11)
    6170:	fb 40 80 ff 2e 00 	mov.b	#-128,	46(r11)	;#0xff80, 0x002e(r11)
    6176:	d2 43 2c 13 	mov.b	#1,	&0x132c	;r3 As==01
    617a:	1b 42 6e 12 	mov	&0x126e,r11	
    617e:	b0 12 d4 49 	call	#0x49d4	
    6182:	1e 42 70 11 	mov	&0x1170,r14	
    6186:	3e 92       	cmp	#8,	r14	;r2 As==11
    6188:	02 24       	jz	$+6      	;abs 0x618e
    618a:	1e 93       	cmp	#1,	r14	;r3 As==01
    618c:	03 24       	jz	$+8      	;abs 0x6194
    618e:	b0 12 e6 49 	call	#0x49e6	
    6192:	14 3c       	jmp	$+42     	;abs 0x61bc
    6194:	a2 43 70 11 	mov	#2,	&0x1170	;r3 As==10
    6198:	d2 43 18 15 	mov.b	#1,	&0x1518	;r3 As==01
    619c:	82 4b 3a 12 	mov	r11,	&0x123a	
    61a0:	c2 43 90 11 	mov.b	#0,	&0x1190	;r3 As==00
    61a4:	b0 12 e6 49 	call	#0x49e6	
    61a8:	7f 40 03 00 	mov.b	#3,	r15	;#0x0003
    61ac:	b0 12 9c 5c 	call	#0x5c9c	
    61b0:	4f 93       	tst.b	r15		
    61b2:	06 24       	jz	$+14     	;abs 0x61c0
    61b4:	7f 40 03 00 	mov.b	#3,	r15	;#0x0003
    61b8:	b0 12 fc 5b 	call	#0x5bfc	
    61bc:	4f 43       	clr.b	r15		
    61be:	05 3c       	jmp	$+12     	;abs 0x61ca
    61c0:	b0 12 d8 57 	call	#0x57d8	
    61c4:	fb 3f       	jmp	$-8      	;abs 0x61bc
    61c6:	7f 40 05 00 	mov.b	#5,	r15	;#0x0005
    61ca:	3a 41       	pop	r10		
    61cc:	3b 41       	pop	r11		
    61ce:	30 41       	ret			

000061d0 <CC2420ActiveMessageP__AMSend__send>:
    61d0:	0b 12       	push	r11		
    61d2:	0a 12       	push	r10		
    61d4:	09 12       	push	r9		
    61d6:	0b 4d       	mov	r13,	r11	
    61d8:	4a 4c       	mov.b	r12,	r10	
    61da:	7c 90 1d 00 	cmp.b	#29,	r12	;#0x001d
    61de:	4f 2c       	jc	$+160    	;abs 0x627e
    61e0:	cd 4f 0b 00 	mov.b	r15,	11(r13)	;0x000b(r13)
    61e4:	cd 4e 06 00 	mov.b	r14,	6(r13)	;0x0006(r13)
    61e8:	8e 10       	swpb	r14		
    61ea:	cd 4e 07 00 	mov.b	r14,	7(r13)	;0x0007(r13)
    61ee:	b0 12 d4 49 	call	#0x49d4	
    61f2:	19 42 0c 12 	mov	&0x120c,r9	
    61f6:	b0 12 e6 49 	call	#0x49e6	
    61fa:	cb 49 04 00 	mov.b	r9,	4(r11)	;0x0004(r11)
    61fe:	89 10       	swpb	r9		
    6200:	cb 49 05 00 	mov.b	r9,	5(r11)	;0x0005(r11)
    6204:	b0 12 d4 49 	call	#0x49d4	
    6208:	19 42 1e 11 	mov	&0x111e,r9	
    620c:	b0 12 e6 49 	call	#0x49e6	
    6210:	cb 49 08 00 	mov.b	r9,	8(r11)	;0x0008(r11)
    6214:	89 10       	swpb	r9		
    6216:	cb 49 09 00 	mov.b	r9,	9(r11)	;0x0009(r11)
    621a:	5f 4b 01 00 	mov.b	1(r11),	r15	;0x0001(r11)
    621e:	3f d0 40 88 	bis	#-30656,r15	;#0x8840
    6222:	5e 4b 02 00 	mov.b	2(r11),	r14	;0x0002(r11)
    6226:	8e 10       	swpb	r14		
    6228:	0f de       	bis	r14,	r15	
    622a:	cb 4f 01 00 	mov.b	r15,	1(r11)	;0x0001(r11)
    622e:	8f 10       	swpb	r15		
    6230:	cb 4f 02 00 	mov.b	r15,	2(r11)	;0x0002(r11)
    6234:	4f 4a       	mov.b	r10,	r15	
    6236:	7f 50 0d 00 	add.b	#13,	r15	;#0x000d
    623a:	cb 4f 00 00 	mov.b	r15,	0(r11)	;0x0000(r11)
    623e:	c2 93 1b 11 	tst.b	&0x111b	
    6242:	08 24       	jz	$+18     	;abs 0x6254
    6244:	c2 43 1b 11 	mov.b	#0,	&0x111b	;r3 As==00
    6248:	0f 4b       	mov	r11,	r15	
    624a:	b0 12 be 60 	call	#0x60be	
    624e:	4f 93       	tst.b	r15		
    6250:	0f 20       	jnz	$+32     	;abs 0x6270
    6252:	19 3c       	jmp	$+52     	;abs 0x6286
    6254:	c2 4a 6c 12 	mov.b	r10,	&0x126c	
    6258:	c2 43 6d 12 	mov.b	#0,	&0x126d	;r3 As==00
    625c:	82 4b 6a 11 	mov	r11,	&0x116a	
    6260:	7f 40 0b 00 	mov.b	#11,	r15	;#0x000b
    6264:	b0 12 ee 49 	call	#0x49ee	
    6268:	c2 93 1b 11 	tst.b	&0x111b	
    626c:	0a 24       	jz	$+22     	;abs 0x6282
    626e:	03 3c       	jmp	$+8      	;abs 0x6276
    6270:	f2 43 1b 11 	mov.b	#-1,	&0x111b	;r3 As==11
    6274:	08 3c       	jmp	$+18     	;abs 0x6286
    6276:	c2 43 40 12 	mov.b	#0,	&0x1240	;r3 As==00
    627a:	4f 43       	clr.b	r15		
    627c:	04 3c       	jmp	$+10     	;abs 0x6286
    627e:	6f 43       	mov.b	#2,	r15	;r3 As==10
    6280:	02 3c       	jmp	$+6      	;abs 0x6286
    6282:	7f 40 09 00 	mov.b	#9,	r15	;#0x0009
    6286:	39 41       	pop	r9		
    6288:	3a 41       	pop	r10		
    628a:	3b 41       	pop	r11		
    628c:	30 41       	ret			

0000628e <FWBC__SendData__send.constprop.190>:
    628e:	f2 43 aa 11 	mov.b	#-1,	&0x11aa	;r3 As==11
    6292:	f2 43 ab 11 	mov.b	#-1,	&0x11ab	;r3 As==11
    6296:	d2 43 af 11 	mov.b	#1,	&0x11af	;r3 As==01
    629a:	82 93 78 12 	tst	&0x1278	
    629e:	19 20       	jnz	$+52     	;abs 0x62d2
    62a0:	b2 40 a4 11 78 12 	mov	#4516,	&0x1278	;#0x11a4
    62a6:	f2 40 15 00 a4 11 	mov.b	#21,	&0x11a4	;#0x0015
    62ac:	c2 93 14 11 	tst.b	&0x1114	
    62b0:	13 24       	jz	$+40     	;abs 0x62d8
    62b2:	c2 43 14 11 	mov.b	#0,	&0x1114	;r3 As==00
    62b6:	7c 42       	mov.b	#8,	r12	;r2 As==11
    62b8:	3d 40 a4 11 	mov	#4516,	r13	;#0x11a4
    62bc:	3e 43       	mov	#-1,	r14	;r3 As==11
    62be:	5f 43       	mov.b	#1,	r15	;r3 As==01
    62c0:	b0 12 d0 61 	call	#0x61d0	
    62c4:	4f 93       	tst.b	r15		
    62c6:	09 24       	jz	$+20     	;abs 0x62da
    62c8:	d2 43 14 11 	mov.b	#1,	&0x1114	;r3 As==01
    62cc:	82 43 78 12 	mov	#0,	&0x1278	;r3 As==00
    62d0:	30 41       	ret			
    62d2:	7f 40 05 00 	mov.b	#5,	r15	;#0x0005
    62d6:	30 41       	ret			
    62d8:	4f 43       	clr.b	r15		
    62da:	30 41       	ret			

000062dc <FWBC__initData>:
    62dc:	d2 42 18 11 b1 11 	mov.b	&0x1118,&0x11b1	
    62e2:	c2 43 b0 11 	mov.b	#0,	&0x11b0	;r3 As==00
    62e6:	1f 42 08 12 	mov	&0x1208,r15	
    62ea:	c2 4f b4 11 	mov.b	r15,	&0x11b4	
    62ee:	8f 10       	swpb	r15		
    62f0:	c2 4f b3 11 	mov.b	r15,	&0x11b3	
    62f4:	c2 43 b2 11 	mov.b	#0,	&0x11b2	;r3 As==00
    62f8:	1f 42 5c 11 	mov	&0x115c,r15	
    62fc:	c2 4f b6 11 	mov.b	r15,	&0x11b6	
    6300:	8f 10       	swpb	r15		
    6302:	c2 4f b5 11 	mov.b	r15,	&0x11b5	
    6306:	f2 40 14 00 b7 11 	mov.b	#20,	&0x11b7	;#0x0014
    630c:	c2 93 64 11 	tst.b	&0x1164	
    6310:	0f 20       	jnz	$+32     	;abs 0x6330
    6312:	b0 12 8e 62 	call	#0x628e	
    6316:	4f 93       	tst.b	r15		
    6318:	0b 20       	jnz	$+24     	;abs 0x6330
    631a:	d2 43 64 11 	mov.b	#1,	&0x1164	;r3 As==01
    631e:	d2 53 18 11 	inc.b	&0x1118	
    6322:	b0 12 d4 49 	call	#0x49d4	
    6326:	f2 e0 40 00 31 00 	xor.b	#64,	&0x0031	;#0x0040
    632c:	b0 12 e6 49 	call	#0x49e6	
    6330:	30 41       	ret			

00006332 <VirtualizeTimerC__0__fireTimers>:
    6332:	0b 12       	push	r11		
    6334:	09 12       	push	r9		
    6336:	08 12       	push	r8		
    6338:	07 12       	push	r7		
    633a:	06 12       	push	r6		
    633c:	05 12       	push	r5		
    633e:	04 12       	push	r4		
    6340:	04 4e       	mov	r14,	r4	
    6342:	05 4f       	mov	r15,	r5	
    6344:	0b 43       	clr	r11		
    6346:	0e 4b       	mov	r11,	r14	
    6348:	0e 5e       	rla	r14		
    634a:	0f 4e       	mov	r14,	r15	
    634c:	0f 5f       	rla	r15		
    634e:	0f 5f       	rla	r15		
    6350:	0f 5e       	add	r14,	r15	
    6352:	3f 50 82 12 	add	#4738,	r15	;#0x1282
    6356:	5e 4f 08 00 	mov.b	8(r15),	r14	;0x0008(r15)
    635a:	6e b3       	bit.b	#2,	r14	;r3 As==10
    635c:	4b 24       	jz	$+152    	;abs 0x63f4
    635e:	28 4f       	mov	@r15,	r8	
    6360:	19 4f 02 00 	mov	2(r15),	r9	;0x0002(r15)
    6364:	1c 4f 04 00 	mov	4(r15),	r12	;0x0004(r15)
    6368:	1d 4f 06 00 	mov	6(r15),	r13	;0x0006(r15)
    636c:	06 44       	mov	r4,	r6	
    636e:	07 45       	mov	r5,	r7	
    6370:	06 88       	sub	r8,	r6	
    6372:	07 79       	subc	r9,	r7	
    6374:	07 9d       	cmp	r13,	r7	
    6376:	3e 28       	jnc	$+126    	;abs 0x63f4
    6378:	02 20       	jnz	$+6      	;abs 0x637e
    637a:	06 9c       	cmp	r12,	r6	
    637c:	3b 28       	jnc	$+120    	;abs 0x63f4
    637e:	5e f3       	and.b	#1,	r14	;r3 As==01
    6380:	04 24       	jz	$+10     	;abs 0x638a
    6382:	ff f0 fd ff 08 00 	and.b	#-3,	8(r15)	;#0xfffd, 0x0008(r15)
    6388:	08 3c       	jmp	$+18     	;abs 0x639a
    638a:	06 48       	mov	r8,	r6	
    638c:	07 49       	mov	r9,	r7	
    638e:	06 5c       	add	r12,	r6	
    6390:	07 6d       	addc	r13,	r7	
    6392:	8f 46 00 00 	mov	r6,	0(r15)	;0x0000(r15)
    6396:	8f 47 02 00 	mov	r7,	2(r15)	;0x0002(r15)
    639a:	6b 93       	cmp.b	#2,	r11	;r3 As==10
    639c:	17 24       	jz	$+48     	;abs 0x63cc
    639e:	7b 90 03 00 	cmp.b	#3,	r11	;#0x0003
    63a2:	03 2c       	jc	$+8      	;abs 0x63aa
    63a4:	5b 93       	cmp.b	#1,	r11	;r3 As==01
    63a6:	2a 20       	jnz	$+86     	;abs 0x63fc
    63a8:	06 3c       	jmp	$+14     	;abs 0x63b6
    63aa:	7b 90 03 00 	cmp.b	#3,	r11	;#0x0003
    63ae:	13 24       	jz	$+40     	;abs 0x63d6
    63b0:	6b 92       	cmp.b	#4,	r11	;r2 As==10
    63b2:	24 20       	jnz	$+74     	;abs 0x63fc
    63b4:	16 3c       	jmp	$+46     	;abs 0x63e2
    63b6:	c2 93 60 11 	tst.b	&0x1160	
    63ba:	20 24       	jz	$+66     	;abs 0x63fc
    63bc:	c2 93 5e 11 	tst.b	&0x115e	
    63c0:	1d 24       	jz	$+60     	;abs 0x63fc
    63c2:	7f 40 0c 00 	mov.b	#12,	r15	;#0x000c
    63c6:	b0 12 ee 49 	call	#0x49ee	
    63ca:	18 3c       	jmp	$+50     	;abs 0x63fc
    63cc:	1d 42 16 11 	mov	&0x1116,r13	
    63d0:	0e 43       	clr	r14		
    63d2:	6f 43       	mov.b	#2,	r15	;r3 As==10
    63d4:	0a 3c       	jmp	$+22     	;abs 0x63ea
    63d6:	1d 42 16 11 	mov	&0x1116,r13	
    63da:	0e 43       	clr	r14		
    63dc:	7f 40 03 00 	mov.b	#3,	r15	;#0x0003
    63e0:	04 3c       	jmp	$+10     	;abs 0x63ea
    63e2:	1d 42 16 11 	mov	&0x1116,r13	
    63e6:	0e 43       	clr	r14		
    63e8:	6f 42       	mov.b	#4,	r15	;r2 As==10
    63ea:	b0 12 8c 59 	call	#0x598c	
    63ee:	b0 12 dc 62 	call	#0x62dc	
    63f2:	04 3c       	jmp	$+10     	;abs 0x63fc
    63f4:	1b 53       	inc	r11		
    63f6:	3b 90 05 00 	cmp	#5,	r11	;#0x0005
    63fa:	a5 23       	jnz	$-180    	;abs 0x6346
    63fc:	7f 40 0a 00 	mov.b	#10,	r15	;#0x000a
    6400:	b0 12 ee 49 	call	#0x49ee	
    6404:	34 41       	pop	r4		
    6406:	35 41       	pop	r5		
    6408:	36 41       	pop	r6		
    640a:	37 41       	pop	r7		
    640c:	38 41       	pop	r8		
    640e:	39 41       	pop	r9		
    6410:	3b 41       	pop	r11		
    6412:	30 41       	ret			

00006414 <AMQueueImplP__0__sendDone>:
    6414:	0b 12       	push	r11		
    6416:	0a 12       	push	r10		
    6418:	09 12       	push	r9		
    641a:	08 12       	push	r8		
    641c:	07 12       	push	r7		
    641e:	06 12       	push	r6		
    6420:	48 4f       	mov.b	r15,	r8	
    6422:	07 4e       	mov	r14,	r7	
    6424:	46 4d       	mov.b	r13,	r6	
    6426:	4c 4f       	mov.b	r15,	r12	
    6428:	0c 5c       	rla	r12		
    642a:	8c 43 78 12 	mov	#0,	4728(r12);r3 As==00, 0x1278(r12)
    642e:	c2 43 14 11 	mov.b	#0,	&0x1114	;r3 As==00
    6432:	1b 42 78 12 	mov	&0x1278,r11	
    6436:	0b 93       	tst	r11		
    6438:	04 24       	jz	$+10     	;abs 0x6442
    643a:	5f 42 ac 14 	mov.b	&0x14ac,r15	
    643e:	1f f3       	and	#1,	r15	;r3 As==01
    6440:	02 24       	jz	$+6      	;abs 0x6446
    6442:	d2 43 14 11 	mov.b	#1,	&0x1114	;r3 As==01
    6446:	c2 93 14 11 	tst.b	&0x1114	
    644a:	15 20       	jnz	$+44     	;abs 0x6476
    644c:	5a 4b 07 00 	mov.b	7(r11),	r10	;0x0007(r11)
    6450:	8a 10       	swpb	r10		
    6452:	59 4b 06 00 	mov.b	6(r11),	r9	;0x0006(r11)
    6456:	6c 4b       	mov.b	@r11,	r12	
    6458:	7c 50 f3 ff 	add.b	#-13,	r12	;#0xfff3
    645c:	0d 4b       	mov	r11,	r13	
    645e:	0e 4a       	mov	r10,	r14	
    6460:	0e d9       	bis	r9,	r14	
    6462:	5f 4b 0b 00 	mov.b	11(r11),r15	;0x000b(r11)
    6466:	b0 12 d0 61 	call	#0x61d0	
    646a:	4f 93       	tst.b	r15		
    646c:	04 24       	jz	$+10     	;abs 0x6476
    646e:	7f 40 0e 00 	mov.b	#14,	r15	;#0x000e
    6472:	b0 12 ee 49 	call	#0x49ee	
    6476:	4d 46       	mov.b	r6,	r13	
    6478:	0e 47       	mov	r7,	r14	
    647a:	4f 48       	mov.b	r8,	r15	
    647c:	b0 12 5c 59 	call	#0x595c	
    6480:	36 41       	pop	r6		
    6482:	37 41       	pop	r7		
    6484:	38 41       	pop	r8		
    6486:	39 41       	pop	r9		
    6488:	3a 41       	pop	r10		
    648a:	3b 41       	pop	r11		
    648c:	30 41       	ret			

0000648e <CC2420ActiveMessageP__AMSend__sendDone.isra.177>:
    648e:	4d 4e       	mov.b	r14,	r13	
    6490:	c2 93 14 11 	tst.b	&0x1114	
    6494:	07 20       	jnz	$+16     	;abs 0x64a4
    6496:	1e 42 78 12 	mov	&0x1278,r14	
    649a:	0e 9f       	cmp	r15,	r14	
    649c:	03 20       	jnz	$+8      	;abs 0x64a4
    649e:	4f 43       	clr.b	r15		
    64a0:	b0 12 14 64 	call	#0x6414	
    64a4:	30 41       	ret			

000064a6 <Msp430TimerP__1__Event__fired>:
    64a6:	0b 12       	push	r11		
    64a8:	0a 12       	push	r10		
    64aa:	09 12       	push	r9		
    64ac:	08 12       	push	r8		
    64ae:	07 12       	push	r7		
    64b0:	06 12       	push	r6		
    64b2:	05 12       	push	r5		
    64b4:	7f 92       	cmp.b	#8,	r15	;r2 As==11
    64b6:	02 28       	jnc	$+6      	;abs 0x64bc
    64b8:	30 40 52 68 	br	#0x6852	
    64bc:	4f 4f       	mov.b	r15,	r15	
    64be:	0f 5f       	rla	r15		
    64c0:	10 4f d4 85 	br	-31276(r15)	;0x85d4(r15)
    64c4:	1f 42 82 01 	mov	&0x0182,r15	
    64c8:	8f 10       	swpb	r15		
    64ca:	5f f3       	and.b	#1,	r15	;r3 As==01
    64cc:	04 24       	jz	$+10     	;abs 0x64d6
    64ce:	1f 42 92 01 	mov	&0x0192,r15	
    64d2:	30 40 52 68 	br	#0x6852	
    64d6:	b2 f0 ef ff 82 01 	and	#-17,	&0x0182	;#0xffef
    64dc:	82 93 4a 12 	tst	&0x124a	
    64e0:	49 20       	jnz	$+148    	;abs 0x6574
    64e2:	82 93 4c 12 	tst	&0x124c	
    64e6:	46 20       	jnz	$+142    	;abs 0x6574
    64e8:	1f 42 70 11 	mov	&0x1170,r15	
    64ec:	3f 50 fd ff 	add	#-3,	r15	;#0xfffd
    64f0:	3f 90 06 00 	cmp	#6,	r15	;#0x0006
    64f4:	2f 2c       	jc	$+96     	;abs 0x6554
    64f6:	0f 5f       	rla	r15		
    64f8:	10 4f e4 85 	br	-31260(r15)	;0x85e4(r15)
    64fc:	f2 b0 10 00 20 00 	bit.b	#16,	&0x0020	;#0x0010
    6502:	08 24       	jz	$+18     	;abs 0x6514
    6504:	a2 42 70 11 	mov	#4,	&0x1170	;r2 As==10
    6508:	3e 40 07 00 	mov	#7,	r14	;#0x0007
    650c:	0f 43       	clr	r15		
    650e:	b0 12 88 55 	call	#0x5588	
    6512:	20 3c       	jmp	$+66     	;abs 0x6554
    6514:	b0 12 cc 55 	call	#0x55cc	
    6518:	1d 3c       	jmp	$+60     	;abs 0x6554
    651a:	7f 40 03 00 	mov.b	#3,	r15	;#0x0003
    651e:	b0 12 9c 5c 	call	#0x5c9c	
    6522:	4f 93       	tst.b	r15		
    6524:	05 24       	jz	$+12     	;abs 0x6530
    6526:	7f 40 03 00 	mov.b	#3,	r15	;#0x0003
    652a:	b0 12 fc 5b 	call	#0x5bfc	
    652e:	12 3c       	jmp	$+38     	;abs 0x6554
    6530:	b0 12 fa 55 	call	#0x55fa	
    6534:	0f 3c       	jmp	$+32     	;abs 0x6554
    6536:	4f 43       	clr.b	r15		
    6538:	0b 3c       	jmp	$+24     	;abs 0x6550
    653a:	7f 40 09 00 	mov.b	#9,	r15	;#0x0009
    653e:	b0 12 30 52 	call	#0x5230	
    6542:	5f 43       	mov.b	#1,	r15	;r3 As==01
    6544:	b0 12 84 46 	call	#0x4684	
    6548:	b0 12 4e 54 	call	#0x544e	
    654c:	7f 40 07 00 	mov.b	#7,	r15	;#0x0007
    6550:	b0 12 6a 53 	call	#0x536a	
    6554:	92 93 82 11 	cmp	#1,	&0x1182	;r3 As==01
    6558:	02 24       	jz	$+6      	;abs 0x655e
    655a:	30 40 52 68 	br	#0x6852	
    655e:	a2 43 82 11 	mov	#2,	&0x1182	;r3 As==10
    6562:	b0 12 7a 58 	call	#0x587a	
    6566:	b0 12 8a 58 	call	#0x588a	
    656a:	4f 43       	clr.b	r15		
    656c:	b0 12 fc 5b 	call	#0x5bfc	
    6570:	30 40 52 68 	br	#0x6852	
    6574:	b0 12 a4 54 	call	#0x54a4	
    6578:	30 40 52 68 	br	#0x6852	
    657c:	1f 42 84 01 	mov	&0x0184,r15	
    6580:	8f 10       	swpb	r15		
    6582:	5f f3       	and.b	#1,	r15	;r3 As==01
    6584:	02 20       	jnz	$+6      	;abs 0x658a
    6586:	30 40 52 68 	br	#0x6852	
    658a:	18 42 94 01 	mov	&0x0194,r8	
    658e:	b2 f0 fe ff 84 01 	and	#-2,	&0x0184	;#0xfffe
    6594:	b2 f0 fd ff 84 01 	and	#-3,	&0x0184	;#0xfffd
    659a:	b0 12 5a 54 	call	#0x545a	
    659e:	0c 4e       	mov	r14,	r12	
    65a0:	0c 88       	sub	r8,	r12	
    65a2:	0d 43       	clr	r13		
    65a4:	06 4e       	mov	r14,	r6	
    65a6:	07 4f       	mov	r15,	r7	
    65a8:	06 8c       	sub	r12,	r6	
    65aa:	07 7d       	subc	r13,	r7	
    65ac:	1f 42 70 11 	mov	&0x1170,r15	
    65b0:	3f 90 05 00 	cmp	#5,	r15	;#0x0005
    65b4:	04 24       	jz	$+10     	;abs 0x65be
    65b6:	3f 90 06 00 	cmp	#6,	r15	;#0x0006
    65ba:	b8 20       	jnz	$+370    	;abs 0x672c
    65bc:	98 3c       	jmp	$+306    	;abs 0x66ee
    65be:	b2 40 06 00 70 11 	mov	#6,	&0x1170	;#0x0006
    65c4:	d2 43 03 12 	mov.b	#1,	&0x1203	;r3 As==01
    65c8:	c2 43 6e 11 	mov.b	#0,	&0x116e	;r3 As==00
    65cc:	6f 43       	mov.b	#2,	r15	;r3 As==10
    65ce:	b0 12 84 46 	call	#0x4684	
    65d2:	1c 42 3a 12 	mov	&0x123a,r12	
    65d6:	cc 46 31 00 	mov.b	r6,	49(r12)	;0x0031(r12)
    65da:	0f 46       	mov	r6,	r15	
    65dc:	0d 47       	mov	r7,	r13	
    65de:	8f 10       	swpb	r15		
    65e0:	8d 10       	swpb	r13		
    65e2:	4f ed       	xor.b	r13,	r15	
    65e4:	0f ed       	xor	r13,	r15	
    65e6:	cc 4f 30 00 	mov.b	r15,	48(r12)	;0x0030(r12)
    65ea:	0f 47       	mov	r7,	r15	
    65ec:	cc 47 2f 00 	mov.b	r7,	47(r12)	;0x002f(r12)
    65f0:	8f 10       	swpb	r15		
    65f2:	cc 4f 2e 00 	mov.b	r15,	46(r12)	;0x002e(r12)
    65f6:	cc 93 2d 00 	tst.b	45(r12)	;0x002d(r12)
    65fa:	64 24       	jz	$+202    	;abs 0x66c4
    65fc:	65 4c       	mov.b	@r12,	r5	
    65fe:	75 50 fb ff 	add.b	#-5,	r5	;#0xfffb
    6602:	49 45       	mov.b	r5,	r9	
    6604:	09 5c       	add	r12,	r9	
    6606:	6d 49       	mov.b	@r9,	r13	
    6608:	0a 43       	clr	r10		
    660a:	0b 43       	clr	r11		
    660c:	0b 4d       	mov	r13,	r11	
    660e:	8b 10       	swpb	r11		
    6610:	0c 43       	clr	r12		
    6612:	0d 43       	clr	r13		
    6614:	5d 49 01 00 	mov.b	1(r9),	r13	;0x0001(r9)
    6618:	0c da       	bis	r10,	r12	
    661a:	0d db       	bis	r11,	r13	
    661c:	5a 49 03 00 	mov.b	3(r9),	r10	;0x0003(r9)
    6620:	0b 43       	clr	r11		
    6622:	0c da       	bis	r10,	r12	
    6624:	0d db       	bis	r11,	r13	
    6626:	5a 49 02 00 	mov.b	2(r9),	r10	;0x0002(r9)
    662a:	4b ea       	xor.b	r10,	r11	
    662c:	0b ea       	xor	r10,	r11	
    662e:	8b 10       	swpb	r11		
    6630:	4a 4a       	mov.b	r10,	r10	
    6632:	8a 10       	swpb	r10		
    6634:	0c da       	bis	r10,	r12	
    6636:	0d db       	bis	r11,	r13	
    6638:	0c 86       	sub	r6,	r12	
    663a:	0d 77       	subc	r7,	r13	
    663c:	c9 4c 03 00 	mov.b	r12,	3(r9)	;0x0003(r9)
    6640:	0a 4d       	mov	r13,	r10	
    6642:	8c 10       	swpb	r12		
    6644:	8a 10       	swpb	r10		
    6646:	4c ea       	xor.b	r10,	r12	
    6648:	0c ea       	xor	r10,	r12	
    664a:	c9 4c 02 00 	mov.b	r12,	2(r9)	;0x0002(r9)
    664e:	0f 4d       	mov	r13,	r15	
    6650:	c9 4d 01 00 	mov.b	r13,	1(r9)	;0x0001(r9)
    6654:	8f 10       	swpb	r15		
    6656:	c9 4f 00 00 	mov.b	r15,	0(r9)	;0x0000(r9)
    665a:	b0 12 80 52 	call	#0x5280	
    665e:	6c 42       	mov.b	#4,	r12	;r2 As==10
    6660:	0d 49       	mov	r9,	r13	
    6662:	4e 45       	mov.b	r5,	r14	
    6664:	0f 43       	clr	r15		
    6666:	b0 12 d6 56 	call	#0x56d6	
    666a:	b0 12 84 53 	call	#0x5384	
    666e:	6f 49       	mov.b	@r9,	r15	
    6670:	0c 43       	clr	r12		
    6672:	0d 43       	clr	r13		
    6674:	0d 4f       	mov	r15,	r13	
    6676:	8d 10       	swpb	r13		
    6678:	0a 43       	clr	r10		
    667a:	0b 43       	clr	r11		
    667c:	5b 49 01 00 	mov.b	1(r9),	r11	;0x0001(r9)
    6680:	0c da       	bis	r10,	r12	
    6682:	0d db       	bis	r11,	r13	
    6684:	5a 49 03 00 	mov.b	3(r9),	r10	;0x0003(r9)
    6688:	0b 43       	clr	r11		
    668a:	0c da       	bis	r10,	r12	
    668c:	0d db       	bis	r11,	r13	
    668e:	5a 49 02 00 	mov.b	2(r9),	r10	;0x0002(r9)
    6692:	4b ea       	xor.b	r10,	r11	
    6694:	0b ea       	xor	r10,	r11	
    6696:	8b 10       	swpb	r11		
    6698:	4a 4a       	mov.b	r10,	r10	
    669a:	8a 10       	swpb	r10		
    669c:	0c da       	bis	r10,	r12	
    669e:	0d db       	bis	r11,	r13	
    66a0:	0c 56       	add	r6,	r12	
    66a2:	0d 67       	addc	r7,	r13	
    66a4:	c9 4c 03 00 	mov.b	r12,	3(r9)	;0x0003(r9)
    66a8:	0f 4c       	mov	r12,	r15	
    66aa:	0c 4d       	mov	r13,	r12	
    66ac:	8f 10       	swpb	r15		
    66ae:	8c 10       	swpb	r12		
    66b0:	4f ec       	xor.b	r12,	r15	
    66b2:	0f ec       	xor	r12,	r15	
    66b4:	c9 4f 02 00 	mov.b	r15,	2(r9)	;0x0002(r9)
    66b8:	0f 4d       	mov	r13,	r15	
    66ba:	c9 4d 01 00 	mov.b	r13,	1(r9)	;0x0001(r9)
    66be:	8f 10       	swpb	r15		
    66c0:	c9 4f 00 00 	mov.b	r15,	0(r9)	;0x0000(r9)
    66c4:	1d 42 3a 12 	mov	&0x123a,r13	
    66c8:	5f 4d 02 00 	mov.b	2(r13),	r15	;0x0002(r13)
    66cc:	8f 10       	swpb	r15		
    66ce:	5d 4d 01 00 	mov.b	1(r13),	r13	;0x0001(r13)
    66d2:	0f dd       	bis	r13,	r15	
    66d4:	3f f0 20 00 	and	#32,	r15	;#0x0020
    66d8:	02 24       	jz	$+6      	;abs 0x66de
    66da:	d2 43 da 11 	mov.b	#1,	&0x11da	;r3 As==01
    66de:	b0 12 4e 54 	call	#0x544e	
    66e2:	b2 f0 ef ff 82 01 	and	#-17,	&0x0182	;#0xffef
    66e8:	e2 b3 1c 00 	bit.b	#2,	&0x001c	;r3 As==10
    66ec:	b2 20       	jnz	$+358    	;abs 0x6852
    66ee:	c2 43 03 12 	mov.b	#0,	&0x1203	;r3 As==00
    66f2:	5f 43       	mov.b	#1,	r15	;r3 As==01
    66f4:	b0 12 84 46 	call	#0x4684	
    66f8:	1d 42 3a 12 	mov	&0x123a,r13	
    66fc:	5f 4d 02 00 	mov.b	2(r13),	r15	;0x0002(r13)
    6700:	8f 10       	swpb	r15		
    6702:	5d 4d 01 00 	mov.b	1(r13),	r13	;0x0001(r13)
    6706:	0f dd       	bis	r13,	r15	
    6708:	3f f0 20 00 	and	#32,	r15	;#0x0020
    670c:	09 24       	jz	$+20     	;abs 0x6720
    670e:	b2 40 07 00 70 11 	mov	#7,	&0x1170	;#0x0007
    6714:	3e 40 00 01 	mov	#256,	r14	;#0x0100
    6718:	0f 43       	clr	r15		
    671a:	b0 12 88 55 	call	#0x5588	
    671e:	03 3c       	jmp	$+8      	;abs 0x6726
    6720:	4f 43       	clr.b	r15		
    6722:	b0 12 6a 53 	call	#0x536a	
    6726:	e2 b3 1c 00 	bit.b	#2,	&0x001c	;r3 As==10
    672a:	93 24       	jz	$+296    	;abs 0x6852
    672c:	c2 93 6e 11 	tst.b	&0x116e	
    6730:	27 20       	jnz	$+80     	;abs 0x6780
    6732:	c2 93 03 12 	tst.b	&0x1203	
    6736:	24 20       	jnz	$+74     	;abs 0x6780
    6738:	d2 43 03 12 	mov.b	#1,	&0x1203	;r3 As==01
    673c:	6f 43       	mov.b	#2,	r15	;r3 As==10
    673e:	b0 12 84 46 	call	#0x4684	
    6742:	5c 42 1c 00 	mov.b	&0x001c,r12	
    6746:	5d 42 a0 14 	mov.b	&0x14a0,r13	
    674a:	7d 92       	cmp.b	#8,	r13	;r2 As==11
    674c:	0e 2c       	jc	$+30     	;abs 0x676a
    674e:	4f 4d       	mov.b	r13,	r15	
    6750:	5f 52 a6 14 	add.b	&0x14a6,r15	
    6754:	3f f0 07 00 	and	#7,	r15	;#0x0007
    6758:	0f 5f       	rla	r15		
    675a:	0f 5f       	rla	r15		
    675c:	8f 46 4a 14 	mov	r6,	5194(r15);0x144a(r15)
    6760:	8f 47 4c 14 	mov	r7,	5196(r15);0x144c(r15)
    6764:	5d 53       	inc.b	r13		
    6766:	c2 4d a0 14 	mov.b	r13,	&0x14a0	
    676a:	d2 43 6e 11 	mov.b	#1,	&0x116e	;r3 As==01
    676e:	82 48 66 12 	mov	r8,	&0x1266	
    6772:	e2 b3 1c 00 	bit.b	#2,	&0x001c	;r3 As==10
    6776:	6d 20       	jnz	$+220    	;abs 0x6852
    6778:	4e 4c       	mov.b	r12,	r14	
    677a:	6e f3       	and.b	#2,	r14	;r3 As==10
    677c:	5a 43       	mov.b	#1,	r10	;r3 As==01
    677e:	01 20       	jnz	$+4      	;abs 0x6782
    6780:	4a 43       	clr.b	r10		
    6782:	d2 93 03 12 	cmp.b	#1,	&0x1203	;r3 As==01
    6786:	65 20       	jnz	$+204    	;abs 0x6852
    6788:	c2 43 03 12 	mov.b	#0,	&0x1203	;r3 As==00
    678c:	5f 43       	mov.b	#1,	r15	;r3 As==01
    678e:	b0 12 84 46 	call	#0x4684	
    6792:	c2 43 6e 11 	mov.b	#0,	&0x116e	;r3 As==00
    6796:	4a 93       	tst.b	r10		
    6798:	5c 20       	jnz	$+186    	;abs 0x6852
    679a:	0f 48       	mov	r8,	r15	
    679c:	1f 82 66 12 	sub	&0x1266,r15	
    67a0:	3f 90 0a 00 	cmp	#10,	r15	;#0x000a
    67a4:	56 2c       	jc	$+174    	;abs 0x6852
    67a6:	5f 42 a0 14 	mov.b	&0x14a0,r15	
    67aa:	4f 93       	tst.b	r15		
    67ac:	03 24       	jz	$+8      	;abs 0x67b4
    67ae:	7f 53       	add.b	#-1,	r15	;r3 As==11
    67b0:	c2 4f a0 14 	mov.b	r15,	&0x14a0	
    67b4:	1f 42 3a 12 	mov	&0x123a,r15	
    67b8:	0f 93       	tst	r15		
    67ba:	4b 24       	jz	$+152    	;abs 0x6852
    67bc:	cf 43 2d 00 	mov.b	#0,	45(r15)	;r3 As==00, 0x002d(r15)
    67c0:	cf 43 31 00 	mov.b	#0,	49(r15)	;r3 As==00, 0x0031(r15)
    67c4:	cf 43 30 00 	mov.b	#0,	48(r15)	;r3 As==00, 0x0030(r15)
    67c8:	cf 43 2f 00 	mov.b	#0,	47(r15)	;r3 As==00, 0x002f(r15)
    67cc:	ff 40 80 ff 2e 00 	mov.b	#-128,	46(r15)	;#0xff80, 0x002e(r15)
    67d2:	3f 3c       	jmp	$+128    	;abs 0x6852
    67d4:	1f 42 86 01 	mov	&0x0186,r15	
    67d8:	8f 10       	swpb	r15		
    67da:	5f f3       	and.b	#1,	r15	;r3 As==01
    67dc:	03 24       	jz	$+8      	;abs 0x67e4
    67de:	1f 42 96 01 	mov	&0x0196,r15	
    67e2:	37 3c       	jmp	$+112    	;abs 0x6852
    67e4:	b2 f0 ef ff 86 01 	and	#-17,	&0x0186	;#0xffef
    67ea:	82 93 fe 11 	tst	&0x11fe	
    67ee:	08 20       	jnz	$+18     	;abs 0x6800
    67f0:	82 93 00 12 	tst	&0x1200	
    67f4:	05 20       	jnz	$+12     	;abs 0x6800
    67f6:	7f 40 09 00 	mov.b	#9,	r15	;#0x0009
    67fa:	b0 12 ee 49 	call	#0x49ee	
    67fe:	29 3c       	jmp	$+84     	;abs 0x6852
    6800:	b0 12 da 59 	call	#0x59da	
    6804:	26 3c       	jmp	$+78     	;abs 0x6852
    6806:	1f 42 88 01 	mov	&0x0188,r15	
    680a:	8f 10       	swpb	r15		
    680c:	5f f3       	and.b	#1,	r15	;r3 As==01
    680e:	21 24       	jz	$+68     	;abs 0x6852
    6810:	1f 42 98 01 	mov	&0x0198,r15	
    6814:	1e 3c       	jmp	$+62     	;abs 0x6852
    6816:	1f 42 8a 01 	mov	&0x018a,r15	
    681a:	8f 10       	swpb	r15		
    681c:	5f f3       	and.b	#1,	r15	;r3 As==01
    681e:	19 24       	jz	$+52     	;abs 0x6852
    6820:	1f 42 9a 01 	mov	&0x019a,r15	
    6824:	16 3c       	jmp	$+46     	;abs 0x6852
    6826:	1f 42 8c 01 	mov	&0x018c,r15	
    682a:	8f 10       	swpb	r15		
    682c:	5f f3       	and.b	#1,	r15	;r3 As==01
    682e:	11 24       	jz	$+36     	;abs 0x6852
    6830:	1f 42 9c 01 	mov	&0x019c,r15	
    6834:	0e 3c       	jmp	$+30     	;abs 0x6852
    6836:	1f 42 8e 01 	mov	&0x018e,r15	
    683a:	8f 10       	swpb	r15		
    683c:	5f f3       	and.b	#1,	r15	;r3 As==01
    683e:	09 24       	jz	$+20     	;abs 0x6852
    6840:	1f 42 9e 01 	mov	&0x019e,r15	
    6844:	06 3c       	jmp	$+14     	;abs 0x6852
    6846:	92 53 42 12 	inc	&0x1242	
    684a:	82 63 44 12 	adc	&0x1244	
    684e:	92 53 7a 12 	inc	&0x127a	
    6852:	35 41       	pop	r5		
    6854:	36 41       	pop	r6		
    6856:	37 41       	pop	r7		
    6858:	38 41       	pop	r8		
    685a:	39 41       	pop	r9		
    685c:	3a 41       	pop	r10		
    685e:	3b 41       	pop	r11		
    6860:	30 41       	ret			

00006862 <Msp430UartP__0__ResourceConfigure__configure.constprop.193>:
    6862:	0b 12       	push	r11		
    6864:	1f 42 00 11 	mov	&0x1100,r15	
    6868:	12 c3       	clrc			
    686a:	0f 10       	rrc	r15		
    686c:	c2 4f aa 14 	mov.b	r15,	&0x14aa	
    6870:	b0 12 d4 49 	call	#0x49d4	
    6874:	4b 4f       	mov.b	r15,	r11	
    6876:	d2 43 78 00 	mov.b	#1,	&0x0078	;r3 As==01
    687a:	b0 12 de 46 	call	#0x46de	
    687e:	5e 42 03 11 	mov.b	&0x1103,r14	
    6882:	7e f0 fa ff 	and.b	#-6,	r14	;#0xfffa
    6886:	5e d3       	bis.b	#1,	r14	;r3 As==01
    6888:	c2 4e 78 00 	mov.b	r14,	&0x0078	
    688c:	d2 42 04 11 79 00 	mov.b	&0x1104,&0x0079	
    6892:	d2 42 05 11 7a 00 	mov.b	&0x1105,&0x007a	
    6898:	1e 42 00 11 	mov	&0x1100,r14	
    689c:	c2 4e 7c 00 	mov.b	r14,	&0x007c	
    68a0:	8e 10       	swpb	r14		
    68a2:	4e 4e       	mov.b	r14,	r14	
    68a4:	c2 4e 7d 00 	mov.b	r14,	&0x007d	
    68a8:	d2 42 02 11 7b 00 	mov.b	&0x1102,&0x007b	
    68ae:	5e 42 06 11 	mov.b	&0x1106,r14	
    68b2:	7e f0 03 00 	and.b	#3,	r14	;#0x0003
    68b6:	7e 90 03 00 	cmp.b	#3,	r14	;#0x0003
    68ba:	0b 20       	jnz	$+24     	;abs 0x68d2
    68bc:	f2 d0 40 00 1b 00 	bis.b	#64,	&0x001b	;#0x0040
    68c2:	f2 d0 80 ff 1b 00 	bis.b	#-128,	&0x001b	;#0xff80
    68c8:	5e 42 05 00 	mov.b	&0x0005,r14	
    68cc:	7e d0 30 00 	bis.b	#48,	r14	;#0x0030
    68d0:	0f 3c       	jmp	$+32     	;abs 0x68f0
    68d2:	6e 93       	cmp.b	#2,	r14	;r3 As==10
    68d4:	10 20       	jnz	$+34     	;abs 0x68f6
    68d6:	f2 f0 df ff 05 00 	and.b	#-33,	&0x0005	;#0xffdf
    68dc:	f2 f0 bf ff 1b 00 	and.b	#-65,	&0x001b	;#0xffbf
    68e2:	f2 d0 80 ff 1b 00 	bis.b	#-128,	&0x001b	;#0xff80
    68e8:	5e 42 05 00 	mov.b	&0x0005,r14	
    68ec:	7e d0 10 00 	bis.b	#16,	r14	;#0x0010
    68f0:	c2 4e 05 00 	mov.b	r14,	&0x0005	
    68f4:	12 3c       	jmp	$+38     	;abs 0x691a
    68f6:	5e 93       	cmp.b	#1,	r14	;r3 As==01
    68f8:	0e 20       	jnz	$+30     	;abs 0x6916
    68fa:	f2 f0 ef ff 05 00 	and.b	#-17,	&0x0005	;#0xffef
    6900:	f2 f0 7f 00 1b 00 	and.b	#127,	&0x001b	;#0x007f
    6906:	f2 d0 40 00 1b 00 	bis.b	#64,	&0x001b	;#0x0040
    690c:	5e 42 05 00 	mov.b	&0x0005,r14	
    6910:	7e d0 20 00 	bis.b	#32,	r14	;#0x0020
    6914:	ed 3f       	jmp	$-36     	;abs 0x68f0
    6916:	b0 12 fc 46 	call	#0x46fc	
    691a:	f2 f0 fe ff 78 00 	and.b	#-2,	&0x0078	;#0xfffe
    6920:	f2 f0 cf ff 03 00 	and.b	#-49,	&0x0003	;#0xffcf
    6926:	f2 f0 cf ff 01 00 	and.b	#-49,	&0x0001	;#0xffcf
    692c:	4f 4b       	mov.b	r11,	r15	
    692e:	b0 12 e6 49 	call	#0x49e6	
    6932:	b0 12 d4 49 	call	#0x49d4	
    6936:	f2 f0 cf ff 03 00 	and.b	#-49,	&0x0003	;#0xffcf
    693c:	f2 d0 30 00 01 00 	bis.b	#48,	&0x0001	;#0x0030
    6942:	b0 12 e6 49 	call	#0x49e6	
    6946:	3b 41       	pop	r11		
    6948:	30 41       	ret			

0000694a <SchedulerBasicP__TaskBasic__runTask>:
    694a:	0b 12       	push	r11		
    694c:	0a 12       	push	r10		
    694e:	09 12       	push	r9		
    6950:	08 12       	push	r8		
    6952:	07 12       	push	r7		
    6954:	06 12       	push	r6		
    6956:	31 50 f6 ff 	add	#-10,	r1	;#0xfff6
    695a:	7f 90 19 00 	cmp.b	#25,	r15	;#0x0019
    695e:	02 28       	jnc	$+6      	;abs 0x6964
    6960:	30 40 a6 75 	br	#0x75a6	
    6964:	4f 4f       	mov.b	r15,	r15	
    6966:	0f 5f       	rla	r15		
    6968:	10 4f f4 85 	br	-31244(r15)	;0x85f4(r15)
    696c:	b0 12 d4 49 	call	#0x49d4	
    6970:	4b 4f       	mov.b	r15,	r11	
    6972:	5f 43       	mov.b	#1,	r15	;r3 As==01
    6974:	b0 12 84 46 	call	#0x4684	
    6978:	92 43 70 11 	mov	#1,	&0x1170	;r3 As==01
    697c:	c2 43 6e 11 	mov.b	#0,	&0x116e	;r3 As==00
    6980:	c2 43 da 11 	mov.b	#0,	&0x11da	;r3 As==00
    6984:	c2 43 fb 11 	mov.b	#0,	&0x11fb	;r3 As==00
    6988:	4f 4b       	mov.b	r11,	r15	
    698a:	b0 12 e6 49 	call	#0x49e6	
    698e:	b0 12 d4 49 	call	#0x49d4	
    6992:	81 4f 08 00 	mov	r15,	8(r1)	;0x0008(r1)
    6996:	b0 12 5a 47 	call	#0x475a	
    699a:	92 43 f6 11 	mov	#1,	&0x11f6	;r3 As==01
    699e:	c2 43 06 12 	mov.b	#0,	&0x1206	;r3 As==00
    69a2:	f2 f0 fe ff 25 00 	and.b	#-2,	&0x0025	;#0xfffe
    69a8:	f2 f0 fe ff 23 00 	and.b	#-2,	&0x0023	;#0xfffe
    69ae:	d2 d3 24 00 	bis.b	#1,	&0x0024	;r3 As==01
    69b2:	d2 d3 25 00 	bis.b	#1,	&0x0025	;r3 As==01
    69b6:	1f 41 08 00 	mov	8(r1),	r15	;0x0008(r1)
    69ba:	b0 12 e6 49 	call	#0x49e6	
    69be:	b0 12 d4 49 	call	#0x49d4	
    69c2:	4b 4f       	mov.b	r15,	r11	
    69c4:	a2 92 82 11 	cmp	#4,	&0x1182	;r2 As==10
    69c8:	05 20       	jnz	$+12     	;abs 0x69d4
    69ca:	7f 40 03 00 	mov.b	#3,	r15	;#0x0003
    69ce:	b0 12 30 52 	call	#0x5230	
    69d2:	4f 4b       	mov.b	r11,	r15	
    69d4:	b0 12 e6 49 	call	#0x49e6	
    69d8:	b0 12 d4 49 	call	#0x49d4	
    69dc:	4b 4f       	mov.b	r15,	r11	
    69de:	b0 12 84 53 	call	#0x5384	
    69e2:	4f 43       	clr.b	r15		
    69e4:	b0 12 92 53 	call	#0x5392	
    69e8:	4f 4b       	mov.b	r11,	r15	
    69ea:	b0 12 e6 49 	call	#0x49e6	
    69ee:	6f 43       	mov.b	#2,	r15	;r3 As==10
    69f0:	b0 12 a0 57 	call	#0x57a0	
    69f4:	d2 43 68 11 	mov.b	#1,	&0x1168	;r3 As==01
    69f8:	b2 90 46 00 32 11 	cmp	#70,	&0x1132	;#0x0046
    69fe:	02 24       	jz	$+6      	;abs 0x6a04
    6a00:	30 40 a6 75 	br	#0x75a6	
    6a04:	b0 12 b4 57 	call	#0x57b4	
    6a08:	c2 4f 21 13 	mov.b	r15,	&0x1321	
    6a0c:	d2 42 18 11 b1 11 	mov.b	&0x1118,&0x11b1	
    6a12:	c2 43 b0 11 	mov.b	#0,	&0x11b0	;r3 As==00
    6a16:	1f 42 08 12 	mov	&0x1208,r15	
    6a1a:	c2 4f b4 11 	mov.b	r15,	&0x11b4	
    6a1e:	8f 10       	swpb	r15		
    6a20:	c2 4f b3 11 	mov.b	r15,	&0x11b3	
    6a24:	c2 43 b2 11 	mov.b	#0,	&0x11b2	;r3 As==00
    6a28:	1f 42 5c 11 	mov	&0x115c,r15	
    6a2c:	c2 4f b6 11 	mov.b	r15,	&0x11b6	
    6a30:	8f 10       	swpb	r15		
    6a32:	c2 4f b5 11 	mov.b	r15,	&0x11b5	
    6a36:	f2 40 46 00 b7 11 	mov.b	#70,	&0x11b7	;#0x0046
    6a3c:	b0 12 6a 58 	call	#0x586a	
    6a40:	b0 12 c8 57 	call	#0x57c8	
    6a44:	c2 93 64 11 	tst.b	&0x1164	
    6a48:	02 24       	jz	$+6      	;abs 0x6a4e
    6a4a:	30 40 a6 75 	br	#0x75a6	
    6a4e:	b0 12 8e 62 	call	#0x628e	
    6a52:	4f 93       	tst.b	r15		
    6a54:	02 24       	jz	$+6      	;abs 0x6a5a
    6a56:	30 40 a6 75 	br	#0x75a6	
    6a5a:	d2 43 64 11 	mov.b	#1,	&0x1164	;r3 As==01
    6a5e:	d2 53 18 11 	inc.b	&0x1118	
    6a62:	b0 12 6a 58 	call	#0x586a	
    6a66:	30 40 a6 75 	br	#0x75a6	
    6a6a:	4f 43       	clr.b	r15		
    6a6c:	b0 12 a0 57 	call	#0x57a0	
    6a70:	c2 43 68 11 	mov.b	#0,	&0x1168	;r3 As==00
    6a74:	30 40 a6 75 	br	#0x75a6	
    6a78:	b0 12 d4 49 	call	#0x49d4	
    6a7c:	5a 42 84 11 	mov.b	&0x1184,r10	
    6a80:	b0 12 e6 49 	call	#0x49e6	
    6a84:	7f 40 03 00 	mov.b	#3,	r15	;#0x0003
    6a88:	b0 12 60 52 	call	#0x5260	
    6a8c:	4f 93       	tst.b	r15		
    6a8e:	3c 24       	jz	$+122    	;abs 0x6b08
    6a90:	b0 12 d4 49 	call	#0x49d4	
    6a94:	4b 4f       	mov.b	r15,	r11	
    6a96:	82 43 70 11 	mov	#0,	&0x1170	;r3 As==00
    6a9a:	b2 f0 ef ff 82 01 	and	#-17,	&0x0182	;#0xffef
    6aa0:	b2 f0 ef ff 84 01 	and	#-17,	&0x0184	;#0xffef
    6aa6:	f2 f0 fd ff 1f 00 	and.b	#-3,	&0x001f	;#0xfffd
    6aac:	7f 40 03 00 	mov.b	#3,	r15	;#0x0003
    6ab0:	b0 12 92 53 	call	#0x5392	
    6ab4:	b0 12 84 53 	call	#0x5384	
    6ab8:	4f 4b       	mov.b	r11,	r15	
    6aba:	b0 12 e6 49 	call	#0x49e6	
    6abe:	b0 12 d4 49 	call	#0x49d4	
    6ac2:	82 43 f6 11 	mov	#0,	&0x11f6	;r3 As==00
    6ac6:	81 4f 08 00 	mov	r15,	8(r1)	;0x0008(r1)
    6aca:	b0 12 5a 47 	call	#0x475a	
    6ace:	b0 12 84 53 	call	#0x5384	
    6ad2:	f2 f0 fe ff 25 00 	and.b	#-2,	&0x0025	;#0xfffe
    6ad8:	f2 f0 fe ff 23 00 	and.b	#-2,	&0x0023	;#0xfffe
    6ade:	1f 41 08 00 	mov	8(r1),	r15	;0x0008(r1)
    6ae2:	b0 12 e6 49 	call	#0x49e6	
    6ae6:	82 43 82 11 	mov	#0,	&0x1182	;r3 As==00
    6aea:	b0 12 7a 58 	call	#0x587a	
    6aee:	b0 12 d4 49 	call	#0x49d4	
    6af2:	f2 f0 df ff 1d 00 	and.b	#-33,	&0x001d	;#0xffdf
    6af8:	b0 12 e6 49 	call	#0x49e6	
    6afc:	b0 12 8a 58 	call	#0x588a	
    6b00:	5f 43       	mov.b	#1,	r15	;r3 As==01
    6b02:	b0 12 ee 49 	call	#0x49ee	
    6b06:	03 3c       	jmp	$+8      	;abs 0x6b0e
    6b08:	6f 43       	mov.b	#2,	r15	;r3 As==10
    6b0a:	b0 12 a0 57 	call	#0x57a0	
    6b0e:	1b 42 6e 12 	mov	&0x126e,r11	
    6b12:	b0 12 d4 49 	call	#0x49d4	
    6b16:	c2 43 2a 13 	mov.b	#0,	&0x132a	;r3 As==00
    6b1a:	b0 12 e6 49 	call	#0x49e6	
    6b1e:	82 93 ae 14 	tst	&0x14ae	
    6b22:	02 24       	jz	$+6      	;abs 0x6b28
    6b24:	30 40 a6 75 	br	#0x75a6	
    6b28:	f2 43 1b 11 	mov.b	#-1,	&0x111b	;r3 As==11
    6b2c:	4e 4a       	mov.b	r10,	r14	
    6b2e:	0f 4b       	mov	r11,	r15	
    6b30:	30 40 52 71 	br	#0x7152	
    6b34:	b0 12 d4 49 	call	#0x49d4	
    6b38:	4b 4f       	mov.b	r15,	r11	
    6b3a:	c2 93 16 15 	tst.b	&0x1516	
    6b3e:	0d 20       	jnz	$+28     	;abs 0x6b5a
    6b40:	d2 43 16 15 	mov.b	#1,	&0x1516	;r3 As==01
    6b44:	a2 92 82 11 	cmp	#4,	&0x1182	;r2 As==10
    6b48:	04 20       	jnz	$+10     	;abs 0x6b52
    6b4a:	5f 43       	mov.b	#1,	r15	;r3 As==01
    6b4c:	b0 12 fc 5b 	call	#0x5bfc	
    6b50:	03 3c       	jmp	$+8      	;abs 0x6b58
    6b52:	6f 42       	mov.b	#4,	r15	;r2 As==10
    6b54:	b0 12 ee 49 	call	#0x49ee	
    6b58:	4f 4b       	mov.b	r11,	r15	
    6b5a:	b0 12 e6 49 	call	#0x49e6	
    6b5e:	30 40 a6 75 	br	#0x75a6	
    6b62:	b0 12 d4 49 	call	#0x49d4	
    6b66:	c2 43 16 15 	mov.b	#0,	&0x1516	;r3 As==00
    6b6a:	f7 3f       	jmp	$-16     	;abs 0x6b5a
    6b6c:	b0 12 d4 49 	call	#0x49d4	
    6b70:	5b 42 23 11 	mov.b	&0x1123,r11	
    6b74:	b0 12 e6 49 	call	#0x49e6	
    6b78:	7b 90 05 00 	cmp.b	#5,	r11	;#0x0005
    6b7c:	02 28       	jnc	$+6      	;abs 0x6b82
    6b7e:	30 40 a6 75 	br	#0x75a6	
    6b82:	4f 4b       	mov.b	r11,	r15	
    6b84:	0f 5f       	rla	r15		
    6b86:	10 4f 26 86 	br	-31194(r15)	;0x8626(r15)
    6b8a:	b0 12 80 52 	call	#0x5280	
    6b8e:	b0 12 d4 49 	call	#0x49d4	
    6b92:	4b 4f       	mov.b	r15,	r11	
    6b94:	a2 93 82 11 	cmp	#2,	&0x1182	;r3 As==10
    6b98:	e0 23       	jnz	$-62     	;abs 0x6b5a
    6b9a:	b2 40 03 00 82 11 	mov	#3,	&0x1182	;#0x0003
    6ba0:	3e 40 18 00 	mov	#24,	r14	;#0x0018
    6ba4:	7f 40 1d 00 	mov.b	#29,	r15	;#0x001d
    6ba8:	b0 12 92 56 	call	#0x5692	
    6bac:	f2 f0 ef ff 25 00 	and.b	#-17,	&0x0025	;#0xffef
    6bb2:	f2 f0 ef ff 23 00 	and.b	#-17,	&0x0023	;#0xffef
    6bb8:	f2 f0 ef ff 24 00 	and.b	#-17,	&0x0024	;#0xffef
    6bbe:	f2 d0 10 00 25 00 	bis.b	#16,	&0x0025	;#0x0010
    6bc4:	5f 43       	mov.b	#1,	r15	;r3 As==01
    6bc6:	b0 12 30 52 	call	#0x5230	
    6bca:	3e 40 7f 02 	mov	#639,	r14	;#0x027f
    6bce:	7f 40 1c 00 	mov.b	#28,	r15	;#0x001c
    6bd2:	b0 12 92 56 	call	#0x5692	
    6bd6:	b0 12 d0 5a 	call	#0x5ad0	
    6bda:	b0 12 fc 5a 	call	#0x5afc	
    6bde:	3e 40 56 2a 	mov	#10838,	r14	;#0x2a56
    6be2:	7f 40 17 00 	mov.b	#23,	r15	;#0x0017
    6be6:	b0 12 92 56 	call	#0x5692	
    6bea:	3e 40 ff 80 	mov	#-32513,r14	;#0x80ff
    6bee:	7f 40 15 00 	mov.b	#21,	r15	;#0x0015
    6bf2:	b0 12 92 56 	call	#0x5692	
    6bf6:	b0 3f       	jmp	$-158    	;abs 0x6b58
    6bf8:	b0 12 80 52 	call	#0x5280	
    6bfc:	7f 40 06 00 	mov.b	#6,	r15	;#0x0006
    6c00:	b0 12 30 52 	call	#0x5230	
    6c04:	b0 12 d0 5a 	call	#0x5ad0	
    6c08:	b0 12 fc 5a 	call	#0x5afc	
    6c0c:	b0 12 4e 57 	call	#0x574e	
    6c10:	b0 12 84 53 	call	#0x5384	
    6c14:	b0 12 80 52 	call	#0x5280	
    6c18:	7f 40 03 00 	mov.b	#3,	r15	;#0x0003
    6c1c:	b0 12 30 52 	call	#0x5230	
    6c20:	b0 12 84 53 	call	#0x5384	
    6c24:	5f 43       	mov.b	#1,	r15	;r3 As==01
    6c26:	b0 12 92 53 	call	#0x5392	
    6c2a:	6f 42       	mov.b	#4,	r15	;r2 As==10
    6c2c:	30 40 a2 75 	br	#0x75a2	
    6c30:	b0 12 80 52 	call	#0x5280	
    6c34:	b0 12 d4 49 	call	#0x49d4	
    6c38:	4b 4f       	mov.b	r15,	r11	
    6c3a:	b0 12 8c 51 	call	#0x518c	
    6c3e:	4f 93       	tst.b	r15		
    6c40:	04 24       	jz	$+10     	;abs 0x6c4a
    6c42:	4f 4b       	mov.b	r11,	r15	
    6c44:	b0 12 e6 49 	call	#0x49e6	
    6c48:	0d 3c       	jmp	$+28     	;abs 0x6c64
    6c4a:	4f 4b       	mov.b	r11,	r15	
    6c4c:	b0 12 e6 49 	call	#0x49e6	
    6c50:	7f 40 53 00 	mov.b	#83,	r15	;#0x0053
    6c54:	b0 12 00 46 	call	#0x4600	
    6c58:	4f 43       	clr.b	r15		
    6c5a:	b0 12 00 46 	call	#0x4600	
    6c5e:	4f 43       	clr.b	r15		
    6c60:	b0 12 00 46 	call	#0x4600	
    6c64:	b0 12 84 53 	call	#0x5384	
    6c68:	6f 43       	mov.b	#2,	r15	;r3 As==10
    6c6a:	b0 12 92 53 	call	#0x5392	
    6c6e:	30 40 a6 75 	br	#0x75a6	
    6c72:	b0 12 d4 49 	call	#0x49d4	
    6c76:	5b 42 70 11 	mov.b	&0x1170,r11	
    6c7a:	b0 12 e6 49 	call	#0x49e6	
    6c7e:	6b 92       	cmp.b	#4,	r11	;r2 As==10
    6c80:	08 24       	jz	$+18     	;abs 0x6c92
    6c82:	7b 92       	cmp.b	#8,	r11	;r2 As==11
    6c84:	0a 24       	jz	$+22     	;abs 0x6c9a
    6c86:	6b 93       	cmp.b	#2,	r11	;r3 As==10
    6c88:	1e 20       	jnz	$+62     	;abs 0x6cc6
    6c8a:	b0 12 d8 57 	call	#0x57d8	
    6c8e:	30 40 a6 75 	br	#0x75a6	
    6c92:	b0 12 fa 55 	call	#0x55fa	
    6c96:	30 40 a6 75 	br	#0x75a6	
    6c9a:	b0 12 80 52 	call	#0x5280	
    6c9e:	7f 40 09 00 	mov.b	#9,	r15	;#0x0009
    6ca2:	b0 12 30 52 	call	#0x5230	
    6ca6:	b0 12 84 53 	call	#0x5384	
    6caa:	b0 12 4e 54 	call	#0x544e	
    6cae:	b0 12 d4 49 	call	#0x49d4	
    6cb2:	92 43 70 11 	mov	#1,	&0x1170	;r3 As==01
    6cb6:	b0 12 e6 49 	call	#0x49e6	
    6cba:	7f 40 03 00 	mov.b	#3,	r15	;#0x0003
    6cbe:	b0 12 50 53 	call	#0x5350	
    6cc2:	30 40 a6 75 	br	#0x75a6	
    6cc6:	b0 12 4e 54 	call	#0x544e	
    6cca:	30 40 a6 75 	br	#0x75a6	
    6cce:	b0 12 40 53 	call	#0x5340	
    6cd2:	30 40 a6 75 	br	#0x75a6	
    6cd6:	b0 12 d4 49 	call	#0x49d4	
    6cda:	81 4f 08 00 	mov	r15,	8(r1)	;0x0008(r1)
    6cde:	b0 12 b2 5d 	call	#0x5db2	
    6ce2:	30 40 1a 71 	br	#0x711a	
    6ce6:	b0 12 d4 49 	call	#0x49d4	
    6cea:	d2 42 40 13 20 11 	mov.b	&0x1340,&0x1120	
    6cf0:	f2 40 03 00 7e 11 	mov.b	#3,	&0x117e	;#0x0003
    6cf6:	b0 12 e6 49 	call	#0x49e6	
    6cfa:	c2 93 20 11 	tst.b	&0x1120	
    6cfe:	02 20       	jnz	$+6      	;abs 0x6d04
    6d00:	b0 12 4e 5b 	call	#0x5b4e	
    6d04:	c2 93 20 11 	tst.b	&0x1120	
    6d08:	02 24       	jz	$+6      	;abs 0x6d0e
    6d0a:	30 40 a6 75 	br	#0x75a6	
    6d0e:	7f 40 05 00 	mov.b	#5,	r15	;#0x0005
    6d12:	30 40 a2 75 	br	#0x75a2	
    6d16:	1b 42 88 11 	mov	&0x1188,r11	
    6d1a:	68 4b       	mov.b	@r11,	r8	
    6d1c:	4e 48       	mov.b	r8,	r14	
    6d1e:	0e 5b       	add	r11,	r14	
    6d20:	6f 4e       	mov.b	@r14,	r15	
    6d22:	4f 5f       	rla.b	r15		
    6d24:	0f 43       	clr	r15		
    6d26:	0f 6f       	rlc	r15		
    6d28:	cb 4f 2b 00 	mov.b	r15,	43(r11)	;0x002b(r11)
    6d2c:	6f 4e       	mov.b	@r14,	r15	
    6d2e:	7f f0 7f 00 	and.b	#127,	r15	;#0x007f
    6d32:	cb 4f 29 00 	mov.b	r15,	41(r11)	;0x0029(r11)
    6d36:	db 4e ff ff 28 00 	mov.b	-1(r14),40(r11)	;0xffff(r14), 0x0028(r11)
    6d3c:	59 4b 02 00 	mov.b	2(r11),	r9	;0x0002(r11)
    6d40:	5a 4b 01 00 	mov.b	1(r11),	r10	;0x0001(r11)
    6d44:	b0 12 d4 49 	call	#0x49d4	
    6d48:	57 42 fc 11 	mov.b	&0x11fc,r7	
    6d4c:	b0 12 e6 49 	call	#0x49e6	
    6d50:	47 93       	tst.b	r7		
    6d52:	48 24       	jz	$+146    	;abs 0x6de4
    6d54:	4e 49       	mov.b	r9,	r14	
    6d56:	8e 10       	swpb	r14		
    6d58:	4f 4a       	mov.b	r10,	r15	
    6d5a:	0e df       	bis	r15,	r14	
    6d5c:	8e 10       	swpb	r14		
    6d5e:	4e 4e       	mov.b	r14,	r14	
    6d60:	12 c3       	clrc			
    6d62:	0e 10       	rrc	r14		
    6d64:	12 c3       	clrc			
    6d66:	0e 10       	rrc	r14		
    6d68:	3e f0 03 00 	and	#3,	r14	;#0x0003
    6d6c:	2e 93       	cmp	#2,	r14	;r3 As==10
    6d6e:	1e 20       	jnz	$+62     	;abs 0x6dac
    6d70:	5a 4b 07 00 	mov.b	7(r11),	r10	;0x0007(r11)
    6d74:	8a 10       	swpb	r10		
    6d76:	5f 4b 06 00 	mov.b	6(r11),	r15	;0x0006(r11)
    6d7a:	0a df       	bis	r15,	r10	
    6d7c:	b0 12 d4 49 	call	#0x49d4	
    6d80:	19 42 60 12 	mov	&0x1260,r9	
    6d84:	b0 12 e6 49 	call	#0x49e6	
    6d88:	0a 99       	cmp	r9,	r10	
    6d8a:	0b 24       	jz	$+24     	;abs 0x6da2
    6d8c:	5f 4b 07 00 	mov.b	7(r11),	r15	;0x0007(r11)
    6d90:	8f 10       	swpb	r15		
    6d92:	5e 4b 06 00 	mov.b	6(r11),	r14	;0x0006(r11)
    6d96:	0f de       	bis	r14,	r15	
    6d98:	1e 43       	mov	#1,	r14	;r3 As==01
    6d9a:	3f 93       	cmp	#-1,	r15	;r3 As==11
    6d9c:	03 24       	jz	$+8      	;abs 0x6da4
    6d9e:	0e 43       	clr	r14		
    6da0:	01 3c       	jmp	$+4      	;abs 0x6da4
    6da2:	1e 43       	mov	#1,	r14	;r3 As==01
    6da4:	0e 93       	tst	r14		
    6da6:	1e 20       	jnz	$+62     	;abs 0x6de4
    6da8:	30 40 06 70 	br	#0x7006	
    6dac:	3e 90 03 00 	cmp	#3,	r14	;#0x0003
    6db0:	02 24       	jz	$+6      	;abs 0x6db6
    6db2:	30 40 06 70 	br	#0x7006	
    6db6:	91 42 38 13 00 00 	mov	&0x1338,0(r1)	;0x0000(r1)
    6dbc:	91 42 3a 13 02 00 	mov	&0x133a,2(r1)	;0x0002(r1)
    6dc2:	91 42 3c 13 04 00 	mov	&0x133c,4(r1)	;0x0004(r1)
    6dc8:	91 42 3e 13 06 00 	mov	&0x133e,6(r1)	;0x0006(r1)
    6dce:	3d 42       	mov	#8,	r13	;r2 As==11
    6dd0:	0e 41       	mov	r1,	r14	
    6dd2:	0f 4b       	mov	r11,	r15	
    6dd4:	3f 50 06 00 	add	#6,	r15	;#0x0006
    6dd8:	b0 12 ba 7a 	call	#0x7aba	
    6ddc:	0f 93       	tst	r15		
    6dde:	02 24       	jz	$+6      	;abs 0x6de4
    6de0:	30 40 06 70 	br	#0x7006	
    6de4:	78 90 0d 00 	cmp.b	#13,	r8	;#0x000d
    6de8:	02 2c       	jc	$+6      	;abs 0x6dee
    6dea:	30 40 06 70 	br	#0x7006	
    6dee:	1b 42 88 11 	mov	&0x1188,r11	
    6df2:	5e 4b 02 00 	mov.b	2(r11),	r14	;0x0002(r11)
    6df6:	8e 10       	swpb	r14		
    6df8:	5f 4b 01 00 	mov.b	1(r11),	r15	;0x0001(r11)
    6dfc:	0e df       	bis	r15,	r14	
    6dfe:	0f 4e       	mov	r14,	r15	
    6e00:	8f 10       	swpb	r15		
    6e02:	4f 4f       	mov.b	r15,	r15	
    6e04:	12 c3       	clrc			
    6e06:	0f 10       	rrc	r15		
    6e08:	12 c3       	clrc			
    6e0a:	0f 10       	rrc	r15		
    6e0c:	3f f0 03 00 	and	#3,	r15	;#0x0003
    6e10:	0c 4b       	mov	r11,	r12	
    6e12:	3c 50 06 00 	add	#6,	r12	;#0x0006
    6e16:	8e 10       	swpb	r14		
    6e18:	4e 4e       	mov.b	r14,	r14	
    6e1a:	7d 40 06 00 	mov.b	#6,	r13	;#0x0006
    6e1e:	12 c3       	clrc			
    6e20:	0e 10       	rrc	r14		
    6e22:	7d 53       	add.b	#-1,	r13	;r3 As==11
    6e24:	fc 23       	jnz	$-6      	;abs 0x6e1e
    6e26:	3e 90 03 00 	cmp	#3,	r14	;#0x0003
    6e2a:	02 24       	jz	$+6      	;abs 0x6e30
    6e2c:	2e 43       	mov	#2,	r14	;r3 As==10
    6e2e:	01 3c       	jmp	$+4      	;abs 0x6e32
    6e30:	3e 42       	mov	#8,	r14	;r2 As==11
    6e32:	3f 90 03 00 	cmp	#3,	r15	;#0x0003
    6e36:	02 24       	jz	$+6      	;abs 0x6e3c
    6e38:	2f 43       	mov	#2,	r15	;r3 As==10
    6e3a:	01 3c       	jmp	$+4      	;abs 0x6e3e
    6e3c:	3f 42       	mov	#8,	r15	;r2 As==11
    6e3e:	0c 5f       	add	r15,	r12	
    6e40:	0a 43       	clr	r10		
    6e42:	0f 43       	clr	r15		
    6e44:	0d 4c       	mov	r12,	r13	
    6e46:	0d 5f       	add	r15,	r13	
    6e48:	6d 4d       	mov.b	@r13,	r13	
    6e4a:	0a 5d       	add	r13,	r10	
    6e4c:	1f 53       	inc	r15		
    6e4e:	0f 9e       	cmp	r14,	r15	
    6e50:	f9 3b       	jl	$-12     	;abs 0x6e44
    6e52:	57 4b 03 00 	mov.b	3(r11),	r7	;0x0003(r11)
    6e56:	f2 43 b0 14 	mov.b	#-1,	&0x14b0	;r3 As==11
    6e5a:	b0 12 d4 49 	call	#0x49d4	
    6e5e:	5c 42 b0 14 	mov.b	&0x14b0,r12	
    6e62:	3e 40 92 11 	mov	#4498,	r14	;#0x1192
    6e66:	0d 43       	clr	r13		
    6e68:	2a 9e       	cmp	@r14,	r10	
    6e6a:	09 20       	jnz	$+20     	;abs 0x6e7e
    6e6c:	ce 97 02 00 	cmp.b	r7,	2(r14)	;0x0002(r14)
    6e70:	05 20       	jnz	$+12     	;abs 0x6e7c
    6e72:	c2 4c b0 14 	mov.b	r12,	&0x14b0	
    6e76:	b0 12 e6 49 	call	#0x49e6	
    6e7a:	c3 3c       	jmp	$+392    	;abs 0x7002
    6e7c:	4c 4d       	mov.b	r13,	r12	
    6e7e:	1d 53       	inc	r13		
    6e80:	2e 52       	add	#4,	r14	;r2 As==10
    6e82:	2d 92       	cmp	#4,	r13	;r2 As==10
    6e84:	f1 23       	jnz	$-28     	;abs 0x6e68
    6e86:	c2 4c b0 14 	mov.b	r12,	&0x14b0	
    6e8a:	b0 12 e6 49 	call	#0x49e6	
    6e8e:	58 42 b0 14 	mov.b	&0x14b0,r8	
    6e92:	b0 12 d4 49 	call	#0x49d4	
    6e96:	78 93       	cmp.b	#-1,	r8	;r3 As==11
    6e98:	03 24       	jz	$+8      	;abs 0x6ea0
    6e9a:	c2 98 6c 11 	cmp.b	r8,	&0x116c	
    6e9e:	04 20       	jnz	$+10     	;abs 0x6ea8
    6ea0:	58 42 6c 11 	mov.b	&0x116c,r8	
    6ea4:	5d 43       	mov.b	#1,	r13	;r3 As==01
    6ea6:	01 3c       	jmp	$+4      	;abs 0x6eaa
    6ea8:	4d 43       	clr.b	r13		
    6eaa:	4e 48       	mov.b	r8,	r14	
    6eac:	0e 5e       	rla	r14		
    6eae:	0e 5e       	rla	r14		
    6eb0:	8e 4a 92 11 	mov	r10,	4498(r14);0x1192(r14)
    6eb4:	ce 47 94 11 	mov.b	r7,	4500(r14);0x1194(r14)
    6eb8:	4d 93       	tst.b	r13		
    6eba:	07 24       	jz	$+16     	;abs 0x6eca
    6ebc:	5e 42 6c 11 	mov.b	&0x116c,r14	
    6ec0:	5e 53       	inc.b	r14		
    6ec2:	7e f0 03 00 	and.b	#3,	r14	;#0x0003
    6ec6:	c2 4e 6c 11 	mov.b	r14,	&0x116c	
    6eca:	b0 12 e6 49 	call	#0x49e6	
    6ece:	b0 12 d4 49 	call	#0x49d4	
    6ed2:	49 4f       	mov.b	r15,	r9	
    6ed4:	0f 4b       	mov	r11,	r15	
    6ed6:	b0 12 14 47 	call	#0x4714	
    6eda:	6a 4f       	mov.b	@r15,	r10	
    6edc:	4f 49       	mov.b	r9,	r15	
    6ede:	b0 12 e6 49 	call	#0x49e6	
    6ee2:	cb 93 2b 00 	tst.b	43(r11)	;0x002b(r11)
    6ee6:	8d 24       	jz	$+284    	;abs 0x7002
    6ee8:	7a 90 3f 00 	cmp.b	#63,	r10	;#0x003f
    6eec:	8a 20       	jnz	$+278    	;abs 0x7002
    6eee:	5a 4b 07 00 	mov.b	7(r11),	r10	;0x0007(r11)
    6ef2:	8a 10       	swpb	r10		
    6ef4:	5f 4b 06 00 	mov.b	6(r11),	r15	;0x0006(r11)
    6ef8:	0a df       	bis	r15,	r10	
    6efa:	b0 12 d4 49 	call	#0x49d4	
    6efe:	19 42 1e 11 	mov	&0x111e,r9	
    6f02:	b0 12 e6 49 	call	#0x49e6	
    6f06:	0a 99       	cmp	r9,	r10	
    6f08:	0b 24       	jz	$+24     	;abs 0x6f20
    6f0a:	5f 4b 07 00 	mov.b	7(r11),	r15	;0x0007(r11)
    6f0e:	8f 10       	swpb	r15		
    6f10:	5e 4b 06 00 	mov.b	6(r11),	r14	;0x0006(r11)
    6f14:	0f de       	bis	r14,	r15	
    6f16:	1e 43       	mov	#1,	r14	;r3 As==01
    6f18:	3f 93       	cmp	#-1,	r15	;r3 As==11
    6f1a:	03 24       	jz	$+8      	;abs 0x6f22
    6f1c:	0e 43       	clr	r14		
    6f1e:	01 3c       	jmp	$+4      	;abs 0x6f22
    6f20:	1e 43       	mov	#1,	r14	;r3 As==01
    6f22:	0e 93       	tst	r14		
    6f24:	6e 24       	jz	$+222    	;abs 0x7002
    6f26:	db 93 0b 00 	cmp.b	#1,	11(r11)	;r3 As==01, 0x000b(r11)
    6f2a:	6b 20       	jnz	$+216    	;abs 0x7002
    6f2c:	5f 4b 0c 00 	mov.b	12(r11),r15	;0x000c(r11)
    6f30:	8f 10       	swpb	r15		
    6f32:	5e 4b 0d 00 	mov.b	13(r11),r14	;0x000d(r11)
    6f36:	0f de       	bis	r14,	r15	
    6f38:	82 4f 62 11 	mov	r15,	&0x1162	
    6f3c:	5a 4b 0f 00 	mov.b	15(r11),r10	;0x000f(r11)
    6f40:	8a 10       	swpb	r10		
    6f42:	5f 4b 10 00 	mov.b	16(r11),r15	;0x0010(r11)
    6f46:	0a df       	bis	r15,	r10	
    6f48:	fb 90 46 00 13 00 	cmp.b	#70,	19(r11)	;#0x0046, 0x0013(r11)
    6f4e:	4f 20       	jnz	$+160    	;abs 0x6fee
    6f50:	b0 12 6a 58 	call	#0x586a	
    6f54:	b0 12 c8 57 	call	#0x57c8	
    6f58:	1f 42 32 11 	mov	&0x1132,r15	
    6f5c:	0f 93       	tst	r15		
    6f5e:	07 20       	jnz	$+16     	;abs 0x6f6e
    6f60:	b2 43 08 12 	mov	#-1,	&0x1208	;r3 As==11
    6f64:	b0 12 b4 57 	call	#0x57b4	
    6f68:	c2 4f 21 13 	mov.b	r15,	&0x1321	
    6f6c:	3c 3c       	jmp	$+122    	;abs 0x6fe6
    6f6e:	1f 93       	cmp	#1,	r15	;r3 As==01
    6f70:	12 20       	jnz	$+38     	;abs 0x6f96
    6f72:	82 43 08 12 	mov	#0,	&0x1208	;r3 As==00
    6f76:	1d 43       	mov	#1,	r13	;r3 As==01
    6f78:	0e 43       	clr	r14		
    6f7a:	6f 43       	mov.b	#2,	r15	;r3 As==10
    6f7c:	b0 12 16 59 	call	#0x5916	
    6f80:	2d 42       	mov	#4,	r13	;r2 As==10
    6f82:	0e 43       	clr	r14		
    6f84:	7f 40 03 00 	mov.b	#3,	r15	;#0x0003
    6f88:	b0 12 16 59 	call	#0x5916	
    6f8c:	3d 40 05 00 	mov	#5,	r13	;#0x0005
    6f90:	0e 43       	clr	r14		
    6f92:	6f 42       	mov.b	#4,	r15	;r2 As==10
    6f94:	26 3c       	jmp	$+78     	;abs 0x6fe2
    6f96:	2f 93       	cmp	#2,	r15	;r3 As==10
    6f98:	0c 20       	jnz	$+26     	;abs 0x6fb2
    6f9a:	82 43 08 12 	mov	#0,	&0x1208	;r3 As==00
    6f9e:	2d 43       	mov	#2,	r13	;r3 As==10
    6fa0:	0e 43       	clr	r14		
    6fa2:	b0 12 16 59 	call	#0x5916	
    6fa6:	3d 40 03 00 	mov	#3,	r13	;#0x0003
    6faa:	0e 43       	clr	r14		
    6fac:	7f 40 03 00 	mov.b	#3,	r15	;#0x0003
    6fb0:	18 3c       	jmp	$+50     	;abs 0x6fe2
    6fb2:	3f 90 03 00 	cmp	#3,	r15	;#0x0003
    6fb6:	05 20       	jnz	$+12     	;abs 0x6fc2
    6fb8:	92 43 08 12 	mov	#1,	&0x1208	;r3 As==01
    6fbc:	2d 43       	mov	#2,	r13	;r3 As==10
    6fbe:	0e 43       	clr	r14		
    6fc0:	0f 3c       	jmp	$+32     	;abs 0x6fe0
    6fc2:	2f 92       	cmp	#4,	r15	;r2 As==10
    6fc4:	06 20       	jnz	$+14     	;abs 0x6fd2
    6fc6:	92 43 08 12 	mov	#1,	&0x1208	;r3 As==01
    6fca:	3d 40 03 00 	mov	#3,	r13	;#0x0003
    6fce:	0e 43       	clr	r14		
    6fd0:	07 3c       	jmp	$+16     	;abs 0x6fe0
    6fd2:	3f 90 05 00 	cmp	#5,	r15	;#0x0005
    6fd6:	07 20       	jnz	$+16     	;abs 0x6fe6
    6fd8:	a2 43 08 12 	mov	#2,	&0x1208	;r3 As==10
    6fdc:	1d 43       	mov	#1,	r13	;r3 As==01
    6fde:	0e 43       	clr	r14		
    6fe0:	6f 43       	mov.b	#2,	r15	;r3 As==10
    6fe2:	b0 12 16 59 	call	#0x5916	
    6fe6:	b0 12 b4 57 	call	#0x57b4	
    6fea:	c2 4f 21 13 	mov.b	r15,	&0x1321	
    6fee:	1a 92 32 11 	cmp	&0x1132,r10	
    6ff2:	07 20       	jnz	$+16     	;abs 0x7002
    6ff4:	12 12 62 11 	push	&0x1162	
    6ff8:	30 12 f0 85 	push	#-31248	;#0x85f0
    6ffc:	b0 12 3e 7c 	call	#0x7c3e	
    7000:	21 52       	add	#4,	r1	;r2 As==10
    7002:	82 4b 88 11 	mov	r11,	&0x1188	
    7006:	b0 12 d4 49 	call	#0x49d4	
    700a:	c2 43 06 12 	mov.b	#0,	&0x1206	;r3 As==00
    700e:	b0 12 e6 49 	call	#0x49e6	
    7012:	b0 12 3c 5d 	call	#0x5d3c	
    7016:	30 40 a6 75 	br	#0x75a6	
    701a:	c2 93 fa 11 	tst.b	&0x11fa	
    701e:	28 20       	jnz	$+82     	;abs 0x7070
    7020:	1a 42 46 14 	mov	&0x1446,r10	
    7024:	1b 42 48 14 	mov	&0x1448,r11	
    7028:	b0 12 d4 49 	call	#0x49d4	
    702c:	18 42 fe 11 	mov	&0x11fe,r8	
    7030:	19 42 00 12 	mov	&0x1200,r9	
    7034:	18 52 8c 11 	add	&0x118c,r8	
    7038:	19 62 8e 11 	addc	&0x118e,r9	
    703c:	b0 12 e6 49 	call	#0x49e6	
    7040:	82 4a 46 14 	mov	r10,	&0x1446	
    7044:	82 4b 48 14 	mov	r11,	&0x1448	
    7048:	c2 43 fa 11 	mov.b	#0,	&0x11fa	;r3 As==00
    704c:	b0 12 d4 49 	call	#0x49d4	
    7050:	82 48 8c 11 	mov	r8,	&0x118c	
    7054:	82 49 8e 11 	mov	r9,	&0x118e	
    7058:	82 4a fe 11 	mov	r10,	&0x11fe	
    705c:	82 4b 00 12 	mov	r11,	&0x1200	
    7060:	81 4f 08 00 	mov	r15,	8(r1)	;0x0008(r1)
    7064:	b0 12 da 59 	call	#0x59da	
    7068:	1f 41 08 00 	mov	8(r1),	r15	;0x0008(r1)
    706c:	b0 12 e6 49 	call	#0x49e6	
    7070:	b0 12 9a 58 	call	#0x589a	
    7074:	3a 3c       	jmp	$+118    	;abs 0x70ea
    7076:	b0 12 9a 58 	call	#0x589a	
    707a:	08 4e       	mov	r14,	r8	
    707c:	09 4f       	mov	r15,	r9	
    707e:	b2 f0 ef ff 86 01 	and	#-17,	&0x0186	;#0xffef
    7084:	46 43       	clr.b	r6		
    7086:	3a 43       	mov	#-1,	r10	;r3 As==11
    7088:	3b 40 ff 7f 	mov	#32767,	r11	;#0x7fff
    708c:	07 43       	clr	r7		
    708e:	0e 47       	mov	r7,	r14	
    7090:	0e 5e       	rla	r14		
    7092:	0f 4e       	mov	r14,	r15	
    7094:	0f 5f       	rla	r15		
    7096:	0f 5f       	rla	r15		
    7098:	0f 5e       	add	r14,	r15	
    709a:	3f 50 82 12 	add	#4738,	r15	;#0x1282
    709e:	ef b3 08 00 	bit.b	#2,	8(r15)	;r3 As==10, 0x0008(r15)
    70a2:	13 24       	jz	$+40     	;abs 0x70ca
    70a4:	0c 48       	mov	r8,	r12	
    70a6:	0d 49       	mov	r9,	r13	
    70a8:	2c 8f       	sub	@r15,	r12	
    70aa:	1d 7f 02 00 	subc	2(r15),	r13	;0x0002(r15)
    70ae:	1e 4f 04 00 	mov	4(r15),	r14	;0x0004(r15)
    70b2:	1f 4f 06 00 	mov	6(r15),	r15	;0x0006(r15)
    70b6:	0e 8c       	sub	r12,	r14	
    70b8:	0f 7d       	subc	r13,	r15	
    70ba:	0f 9b       	cmp	r11,	r15	
    70bc:	03 38       	jl	$+8      	;abs 0x70c4
    70be:	05 20       	jnz	$+12     	;abs 0x70ca
    70c0:	0e 9a       	cmp	r10,	r14	
    70c2:	03 2c       	jc	$+8      	;abs 0x70ca
    70c4:	0a 4e       	mov	r14,	r10	
    70c6:	0b 4f       	mov	r15,	r11	
    70c8:	56 43       	mov.b	#1,	r6	;r3 As==01
    70ca:	17 53       	inc	r7		
    70cc:	37 90 05 00 	cmp	#5,	r7	;#0x0005
    70d0:	de 23       	jnz	$-66     	;abs 0x708e
    70d2:	46 93       	tst.b	r6		
    70d4:	02 20       	jnz	$+6      	;abs 0x70da
    70d6:	30 40 a6 75 	br	#0x75a6	
    70da:	0b 93       	tst	r11		
    70dc:	04 38       	jl	$+10     	;abs 0x70e6
    70de:	1b 93       	cmp	#1,	r11	;r3 As==01
    70e0:	08 34       	jge	$+18     	;abs 0x70f2
    70e2:	1a 93       	cmp	#1,	r10	;r3 As==01
    70e4:	06 2c       	jc	$+14     	;abs 0x70f2
    70e6:	0e 48       	mov	r8,	r14	
    70e8:	0f 49       	mov	r9,	r15	
    70ea:	b0 12 32 63 	call	#0x6332	
    70ee:	30 40 a6 75 	br	#0x75a6	
    70f2:	82 4a 46 14 	mov	r10,	&0x1446	
    70f6:	82 4b 48 14 	mov	r11,	&0x1448	
    70fa:	d2 43 fa 11 	mov.b	#1,	&0x11fa	;r3 As==01
    70fe:	b0 12 d4 49 	call	#0x49d4	
    7102:	82 48 8c 11 	mov	r8,	&0x118c	
    7106:	82 49 8e 11 	mov	r9,	&0x118e	
    710a:	82 4a fe 11 	mov	r10,	&0x11fe	
    710e:	82 4b 00 12 	mov	r11,	&0x1200	
    7112:	81 4f 08 00 	mov	r15,	8(r1)	;0x0008(r1)
    7116:	b0 12 da 59 	call	#0x59da	
    711a:	1f 41 08 00 	mov	8(r1),	r15	;0x0008(r1)
    711e:	30 40 5a 6b 	br	#0x6b5a	
    7122:	5f 42 40 12 	mov.b	&0x1240,r15	
    7126:	5f 92 1b 11 	cmp.b	&0x111b,r15	
    712a:	02 20       	jnz	$+6      	;abs 0x7130
    712c:	30 40 a6 75 	br	#0x75a6	
    7130:	c2 4f 1b 11 	mov.b	r15,	&0x111b	
    7134:	4f 93       	tst.b	r15		
    7136:	11 20       	jnz	$+36     	;abs 0x715a
    7138:	1f 42 6a 11 	mov	&0x116a,r15	
    713c:	b0 12 be 60 	call	#0x60be	
    7140:	4f 93       	tst.b	r15		
    7142:	02 20       	jnz	$+6      	;abs 0x7148
    7144:	30 40 a6 75 	br	#0x75a6	
    7148:	f2 43 1b 11 	mov.b	#-1,	&0x111b	;r3 As==11
    714c:	4e 4f       	mov.b	r15,	r14	
    714e:	1f 42 6a 11 	mov	&0x116a,r15	
    7152:	b0 12 8e 64 	call	#0x648e	
    7156:	30 40 a6 75 	br	#0x75a6	
    715a:	f2 43 1b 11 	mov.b	#-1,	&0x111b	;r3 As==11
    715e:	30 40 a6 75 	br	#0x75a6	
    7162:	d2 43 5e 11 	mov.b	#1,	&0x115e	;r3 As==01
    7166:	c2 93 64 11 	tst.b	&0x1164	
    716a:	02 24       	jz	$+6      	;abs 0x7170
    716c:	30 40 a6 75 	br	#0x75a6	
    7170:	b0 12 8e 62 	call	#0x628e	
    7174:	4f 93       	tst.b	r15		
    7176:	02 24       	jz	$+6      	;abs 0x717c
    7178:	30 40 a6 75 	br	#0x75a6	
    717c:	d2 43 64 11 	mov.b	#1,	&0x1164	;r3 As==01
    7180:	30 40 a6 75 	br	#0x75a6	
    7184:	c2 93 ac 14 	tst.b	&0x14ac	
    7188:	02 20       	jnz	$+6      	;abs 0x718e
    718a:	30 40 a6 75 	br	#0x75a6	
    718e:	3a 40 78 12 	mov	#4728,	r10	;#0x1278
    7192:	48 43       	clr.b	r8		
    7194:	5b 43       	mov.b	#1,	r11	;r3 As==01
    7196:	5f 42 ac 14 	mov.b	&0x14ac,r15	
    719a:	4b bf       	bit.b	r15,	r11	
    719c:	0b 24       	jz	$+24     	;abs 0x71b4
    719e:	2e 4a       	mov	@r10,	r14	
    71a0:	8a 43 00 00 	mov	#0,	0(r10)	;r3 As==00, 0x0000(r10)
    71a4:	4f cb       	bic.b	r11,	r15	
    71a6:	c2 4f ac 14 	mov.b	r15,	&0x14ac	
    71aa:	7d 40 03 00 	mov.b	#3,	r13	;#0x0003
    71ae:	4f 48       	mov.b	r8,	r15	
    71b0:	b0 12 5c 59 	call	#0x595c	
    71b4:	4b 5b       	rla.b	r11		
    71b6:	58 53       	inc.b	r8		
    71b8:	2a 53       	incd	r10		
    71ba:	78 92       	cmp.b	#8,	r8	;r2 As==11
    71bc:	ec 23       	jnz	$-38     	;abs 0x7196
    71be:	30 40 a6 75 	br	#0x75a6	
    71c2:	5f 42 14 11 	mov.b	&0x1114,r15	
    71c6:	4e 4f       	mov.b	r15,	r14	
    71c8:	0e 5e       	rla	r14		
    71ca:	5d 43       	mov.b	#1,	r13	;r3 As==01
    71cc:	1e 4e 78 12 	mov	4728(r14),r14	;0x1278(r14)
    71d0:	b0 12 14 64 	call	#0x6414	
    71d4:	30 40 a6 75 	br	#0x75a6	
    71d8:	c2 93 48 12 	tst.b	&0x1248	
    71dc:	02 20       	jnz	$+6      	;abs 0x71e2
    71de:	30 40 a6 75 	br	#0x75a6	
    71e2:	38 40 6a 14 	mov	#5226,	r8	;#0x146a
    71e6:	4a 43       	clr.b	r10		
    71e8:	5b 43       	mov.b	#1,	r11	;r3 As==01
    71ea:	5f 42 48 12 	mov.b	&0x1248,r15	
    71ee:	4b bf       	bit.b	r15,	r11	
    71f0:	0a 24       	jz	$+22     	;abs 0x7206
    71f2:	88 43 00 00 	mov	#0,	0(r8)	;r3 As==00, 0x0000(r8)
    71f6:	4f cb       	bic.b	r11,	r15	
    71f8:	c2 4f 48 12 	mov.b	r15,	&0x1248	
    71fc:	7e 40 03 00 	mov.b	#3,	r14	;#0x0003
    7200:	4f 4a       	mov.b	r10,	r15	
    7202:	b0 12 1c 4f 	call	#0x4f1c	
    7206:	4b 5b       	rla.b	r11		
    7208:	5a 53       	inc.b	r10		
    720a:	28 53       	incd	r8		
    720c:	7a 92       	cmp.b	#8,	r10	;r2 As==11
    720e:	ed 23       	jnz	$-36     	;abs 0x71ea
    7210:	30 40 a6 75 	br	#0x75a6	
    7214:	5b 42 13 11 	mov.b	&0x1113,r11	
    7218:	4e 4b       	mov.b	r11,	r14	
    721a:	0e 5e       	rla	r14		
    721c:	8e 43 6a 14 	mov	#0,	5226(r14);r3 As==00, 0x146a(r14)
    7220:	b0 12 1a 4e 	call	#0x4e1a	
    7224:	5e 43       	mov.b	#1,	r14	;r3 As==01
    7226:	4f 4b       	mov.b	r11,	r15	
    7228:	30 40 10 75 	br	#0x7510	
    722c:	b0 12 d4 49 	call	#0x49d4	
    7230:	c2 43 12 15 	mov.b	#0,	&0x1512	;r3 As==00
    7234:	5b 42 20 13 	mov.b	&0x1320,r11	
    7238:	5a 43       	mov.b	#1,	r10	;r3 As==01
    723a:	7b 92       	cmp.b	#8,	r11	;r2 As==11
    723c:	01 24       	jz	$+4      	;abs 0x7240
    723e:	4a 43       	clr.b	r10		
    7240:	58 43       	mov.b	#1,	r8	;r3 As==01
    7242:	7b 90 09 00 	cmp.b	#9,	r11	;#0x0009
    7246:	01 24       	jz	$+4      	;abs 0x724a
    7248:	48 43       	clr.b	r8		
    724a:	4a 93       	tst.b	r10		
    724c:	02 20       	jnz	$+6      	;abs 0x7252
    724e:	48 93       	tst.b	r8		
    7250:	07 24       	jz	$+16     	;abs 0x7260
    7252:	c2 43 20 13 	mov.b	#0,	&0x1320	;r3 As==00
    7256:	5e 42 7e 12 	mov.b	&0x127e,r14	
    725a:	0e 5e       	rla	r14		
    725c:	ce 43 68 12 	mov.b	#0,	4712(r14);r3 As==00, 0x1268(r14)
    7260:	b0 12 e6 49 	call	#0x49e6	
    7264:	4a 93       	tst.b	r10		
    7266:	02 20       	jnz	$+6      	;abs 0x726c
    7268:	48 93       	tst.b	r8		
    726a:	1e 24       	jz	$+62     	;abs 0x72a8
    726c:	b0 12 d4 49 	call	#0x49d4	
    7270:	d2 53 a2 14 	inc.b	&0x14a2	
    7274:	f2 90 43 00 5b 12 	cmp.b	#67,	&0x125b	;#0x0043
    727a:	0e 20       	jnz	$+30     	;abs 0x7298
    727c:	5e 42 71 12 	mov.b	&0x1271,r14	
    7280:	5e 92 70 12 	cmp.b	&0x1270,r14	
    7284:	0c 24       	jz	$+26     	;abs 0x729e
    7286:	5e 53       	inc.b	r14		
    7288:	c2 4e 71 12 	mov.b	r14,	&0x1271	
    728c:	7e 90 06 00 	cmp.b	#6,	r14	;#0x0006
    7290:	06 28       	jnc	$+14     	;abs 0x729e
    7292:	c2 43 71 12 	mov.b	#0,	&0x1271	;r3 As==00
    7296:	03 3c       	jmp	$+8      	;abs 0x729e
    7298:	5a e3       	xor.b	#1,	r10	;r3 As==01
    729a:	58 43       	mov.b	#1,	r8	;r3 As==01
    729c:	02 3c       	jmp	$+6      	;abs 0x72a2
    729e:	48 43       	clr.b	r8		
    72a0:	4a 43       	clr.b	r10		
    72a2:	b0 12 e6 49 	call	#0x49e6	
    72a6:	04 3c       	jmp	$+10     	;abs 0x72b0
    72a8:	4b 93       	tst.b	r11		
    72aa:	61 20       	jnz	$+196    	;abs 0x736e
    72ac:	4a 43       	clr.b	r10		
    72ae:	48 43       	clr.b	r8		
    72b0:	b0 12 d4 49 	call	#0x49d4	
    72b4:	5b 42 5a 11 	mov.b	&0x115a,r11	
    72b8:	b0 12 e6 49 	call	#0x49e6	
    72bc:	4b 93       	tst.b	r11		
    72be:	08 24       	jz	$+18     	;abs 0x72d0
    72c0:	b0 12 d4 49 	call	#0x49d4	
    72c4:	f2 40 0a 00 20 13 	mov.b	#10,	&0x1320	;#0x000a
    72ca:	b0 12 e6 49 	call	#0x49e6	
    72ce:	41 3c       	jmp	$+132    	;abs 0x7352
    72d0:	b0 12 d4 49 	call	#0x49d4	
    72d4:	57 42 68 12 	mov.b	&0x1268,r7	
    72d8:	5b 42 6a 12 	mov.b	&0x126a,r11	
    72dc:	b0 12 e6 49 	call	#0x49e6	
    72e0:	b0 12 d4 49 	call	#0x49d4	
    72e4:	59 42 70 12 	mov.b	&0x1270,r9	
    72e8:	56 42 71 12 	mov.b	&0x1271,r6	
    72ec:	b0 12 e6 49 	call	#0x49e6	
    72f0:	49 96       	cmp.b	r6,	r9	
    72f2:	20 24       	jz	$+66     	;abs 0x7334
    72f4:	47 93       	tst.b	r7		
    72f6:	1e 20       	jnz	$+62     	;abs 0x7334
    72f8:	b0 12 d4 49 	call	#0x49d4	
    72fc:	4b 4f       	mov.b	r15,	r11	
    72fe:	e2 43 68 12 	mov.b	#2,	&0x1268	;r3 As==10
    7302:	b0 12 d4 49 	call	#0x49d4	
    7306:	56 42 70 12 	mov.b	&0x1270,r6	
    730a:	57 42 71 12 	mov.b	&0x1271,r7	
    730e:	b0 12 e6 49 	call	#0x49e6	
    7312:	46 97       	cmp.b	r7,	r6	
    7314:	05 24       	jz	$+12     	;abs 0x7320
    7316:	5e 42 71 12 	mov.b	&0x1271,r14	
    731a:	5e 4e 72 12 	mov.b	4722(r14),r14	;0x1272(r14)
    731e:	01 3c       	jmp	$+4      	;abs 0x7322
    7320:	4e 43       	clr.b	r14		
    7322:	c2 4e 69 12 	mov.b	r14,	&0x1269	
    7326:	f2 40 43 00 5b 12 	mov.b	#67,	&0x125b	;#0x0043
    732c:	c2 43 7e 12 	mov.b	#0,	&0x127e	;r3 As==00
    7330:	4f 4b       	mov.b	r11,	r15	
    7332:	0b 3c       	jmp	$+24     	;abs 0x734a
    7334:	4f 4b       	mov.b	r11,	r15	
    7336:	7f 53       	add.b	#-1,	r15	;r3 As==11
    7338:	6f 93       	cmp.b	#2,	r15	;r3 As==10
    733a:	0b 2c       	jc	$+24     	;abs 0x7352
    733c:	b0 12 d4 49 	call	#0x49d4	
    7340:	f2 40 45 00 5b 12 	mov.b	#69,	&0x125b	;#0x0045
    7346:	d2 43 7e 12 	mov.b	#1,	&0x127e	;r3 As==01
    734a:	b0 12 e6 49 	call	#0x49e6	
    734e:	5b 43       	mov.b	#1,	r11	;r3 As==01
    7350:	01 3c       	jmp	$+4      	;abs 0x7354
    7352:	4b 43       	clr.b	r11		
    7354:	48 93       	tst.b	r8		
    7356:	0c 24       	jz	$+26     	;abs 0x7370
    7358:	b0 12 d4 49 	call	#0x49d4	
    735c:	c2 4a 4c 11 	mov.b	r10,	&0x114c	
    7360:	b0 12 e6 49 	call	#0x49e6	
    7364:	7f 40 15 00 	mov.b	#21,	r15	;#0x0015
    7368:	b0 12 ee 49 	call	#0x49ee	
    736c:	01 3c       	jmp	$+4      	;abs 0x7370
    736e:	4b 43       	clr.b	r11		
    7370:	b0 12 d4 49 	call	#0x49d4	
    7374:	4a 4f       	mov.b	r15,	r10	
    7376:	f2 90 0a 00 20 13 	cmp.b	#10,	&0x1320	;#0x000a
    737c:	05 20       	jnz	$+12     	;abs 0x7388
    737e:	b0 12 b8 4a 	call	#0x4ab8	
    7382:	4f 4a       	mov.b	r10,	r15	
    7384:	30 40 5a 6b 	br	#0x6b5a	
    7388:	b0 12 e6 49 	call	#0x49e6	
    738c:	4b 93       	tst.b	r11		
    738e:	02 20       	jnz	$+6      	;abs 0x7394
    7390:	30 40 a6 75 	br	#0x75a6	
    7394:	b0 12 d4 49 	call	#0x49d4	
    7398:	82 43 1a 15 	mov	#0,	&0x151a	;r3 As==00
    739c:	c2 43 49 12 	mov.b	#0,	&0x1249	;r3 As==00
    73a0:	d2 43 20 13 	mov.b	#1,	&0x1320	;r3 As==01
    73a4:	b0 12 e6 49 	call	#0x49e6	
    73a8:	b0 12 c2 4f 	call	#0x4fc2	
    73ac:	4f 93       	tst.b	r15		
    73ae:	02 20       	jnz	$+6      	;abs 0x73b4
    73b0:	30 40 a6 75 	br	#0x75a6	
    73b4:	b0 12 d4 49 	call	#0x49d4	
    73b8:	f2 40 09 00 20 13 	mov.b	#9,	&0x1320	;#0x0009
    73be:	b0 12 e6 49 	call	#0x49e6	
    73c2:	b0 12 0e 4b 	call	#0x4b0e	
    73c6:	30 40 a6 75 	br	#0x75a6	
    73ca:	b0 12 d4 49 	call	#0x49d4	
    73ce:	c2 93 3c 11 	tst.b	&0x113c	
    73d2:	2b 20       	jnz	$+88     	;abs 0x742a
    73d4:	e2 43 3c 11 	mov.b	#2,	&0x113c	;r3 As==10
    73d8:	c2 43 0e 12 	mov.b	#0,	&0x120e	;r3 As==00
    73dc:	b0 12 e6 49 	call	#0x49e6	
    73e0:	b0 12 d4 49 	call	#0x49d4	
    73e4:	4b 4f       	mov.b	r15,	r11	
    73e6:	d2 93 08 11 	cmp.b	#1,	&0x1108	;r3 As==01
    73ea:	12 20       	jnz	$+38     	;abs 0x7410
    73ec:	5e 42 3c 11 	mov.b	&0x113c,r14	
    73f0:	5e 93       	cmp.b	#1,	r14	;r3 As==01
    73f2:	05 20       	jnz	$+12     	;abs 0x73fe
    73f4:	7f 40 17 00 	mov.b	#23,	r15	;#0x0017
    73f8:	b0 12 ee 49 	call	#0x49ee	
    73fc:	09 3c       	jmp	$+20     	;abs 0x7410
    73fe:	6e 93       	cmp.b	#2,	r14	;r3 As==10
    7400:	07 20       	jnz	$+16     	;abs 0x7410
    7402:	d2 42 0e 12 08 11 	mov.b	&0x120e,&0x1108	
    7408:	f2 40 03 00 3c 11 	mov.b	#3,	&0x113c	;#0x0003
    740e:	01 3c       	jmp	$+4      	;abs 0x7412
    7410:	4f 4b       	mov.b	r11,	r15	
    7412:	b0 12 e6 49 	call	#0x49e6	
    7416:	c2 93 08 11 	tst.b	&0x1108	
    741a:	03 20       	jnz	$+8      	;abs 0x7422
    741c:	b0 12 62 68 	call	#0x6862	
    7420:	06 3c       	jmp	$+14     	;abs 0x742e
    7422:	b0 12 d4 49 	call	#0x49d4	
    7426:	c2 43 3c 11 	mov.b	#0,	&0x113c	;r3 As==00
    742a:	b0 12 e6 49 	call	#0x49e6	
    742e:	b0 12 d4 49 	call	#0x49d4	
    7432:	c2 43 20 13 	mov.b	#0,	&0x1320	;r3 As==00
    7436:	c2 43 07 12 	mov.b	#0,	&0x1207	;r3 As==00
    743a:	30 40 5a 6b 	br	#0x6b5a	
    743e:	7f 40 14 00 	mov.b	#20,	r15	;#0x0014
    7442:	af 3c       	jmp	$+352    	;abs 0x75a2
    7444:	b0 12 40 4f 	call	#0x4f40	
    7448:	4f 93       	tst.b	r15		
    744a:	ad 24       	jz	$+348    	;abs 0x75a6
    744c:	82 93 04 12 	tst	&0x1204	
    7450:	aa 20       	jnz	$+342    	;abs 0x75a6
    7452:	82 93 da 14 	tst	&0x14da	
    7456:	a7 20       	jnz	$+336    	;abs 0x75a6
    7458:	b0 12 d4 49 	call	#0x49d4	
    745c:	4b 4f       	mov.b	r15,	r11	
    745e:	f2 90 03 00 3c 11 	cmp.b	#3,	&0x113c	;#0x0003
    7464:	02 24       	jz	$+6      	;abs 0x746a
    7466:	30 40 58 6b 	br	#0x6b58	
    746a:	c2 93 08 11 	tst.b	&0x1108	
    746e:	02 24       	jz	$+6      	;abs 0x7474
    7470:	30 40 58 6b 	br	#0x6b58	
    7474:	5d 42 0a 11 	mov.b	&0x110a,r13	
    7478:	7d 93       	cmp.b	#-1,	r13	;r3 As==11
    747a:	1b 24       	jz	$+56     	;abs 0x74b2
    747c:	4e 4d       	mov.b	r13,	r14	
    747e:	5f 4e ab 14 	mov.b	5291(r14),r15	;0x14ab(r14)
    7482:	c2 4f 0a 11 	mov.b	r15,	&0x110a	
    7486:	7f 93       	cmp.b	#-1,	r15	;r3 As==11
    7488:	02 20       	jnz	$+6      	;abs 0x748e
    748a:	f2 43 09 11 	mov.b	#-1,	&0x1109	;r3 As==11
    748e:	fe 43 ab 14 	mov.b	#-1,	5291(r14);r3 As==11, 0x14ab(r14)
    7492:	c2 4d 0e 12 	mov.b	r13,	&0x120e	
    7496:	f2 43 08 11 	mov.b	#-1,	&0x1108	;r3 As==11
    749a:	d2 43 3c 11 	mov.b	#1,	&0x113c	;r3 As==01
    749e:	7f 40 17 00 	mov.b	#23,	r15	;#0x0017
    74a2:	b0 12 ee 49 	call	#0x49ee	
    74a6:	d2 43 78 00 	mov.b	#1,	&0x0078	;r3 As==01
    74aa:	f2 f0 cf ff 01 00 	and.b	#-49,	&0x0001	;#0xffcf
    74b0:	0d 3c       	jmp	$+28     	;abs 0x74cc
    74b2:	d2 43 08 11 	mov.b	#1,	&0x1108	;r3 As==01
    74b6:	c2 43 3c 11 	mov.b	#0,	&0x113c	;r3 As==00
    74ba:	d2 43 78 00 	mov.b	#1,	&0x0078	;r3 As==01
    74be:	f2 f0 cf ff 01 00 	and.b	#-49,	&0x0001	;#0xffcf
    74c4:	b0 12 fc 46 	call	#0x46fc	
    74c8:	b0 12 de 46 	call	#0x46de	
    74cc:	b0 12 fc 46 	call	#0x46fc	
    74d0:	30 40 58 6b 	br	#0x6b58	
    74d4:	82 43 52 11 	mov	#0,	&0x1152	;r3 As==00
    74d8:	b0 12 d4 49 	call	#0x49d4	
    74dc:	5b 42 4c 11 	mov.b	&0x114c,r11	
    74e0:	b0 12 e6 49 	call	#0x49e6	
    74e4:	c2 93 4a 11 	tst.b	&0x114a	
    74e8:	02 24       	jz	$+6      	;abs 0x74ee
    74ea:	7b 40 03 00 	mov.b	#3,	r11	;#0x0003
    74ee:	1f 42 54 11 	mov	&0x1154,r15	
    74f2:	c2 93 48 11 	tst.b	&0x1148	
    74f6:	57 20       	jnz	$+176    	;abs 0x75a6
    74f8:	c2 93 13 11 	tst.b	&0x1113	
    74fc:	54 20       	jnz	$+170    	;abs 0x75a6
    74fe:	82 9f 6a 14 	cmp	r15,	&0x146a	
    7502:	51 20       	jnz	$+164    	;abs 0x75a6
    7504:	82 43 6a 14 	mov	#0,	&0x146a	;r3 As==00
    7508:	b0 12 1a 4e 	call	#0x4e1a	
    750c:	4e 4b       	mov.b	r11,	r14	
    750e:	4f 43       	clr.b	r15		
    7510:	b0 12 1c 4f 	call	#0x4f1c	
    7514:	48 3c       	jmp	$+146    	;abs 0x75a6
    7516:	b0 12 d4 49 	call	#0x49d4	
    751a:	1a 42 42 11 	mov	&0x1142,r10	
    751e:	5b 42 d9 11 	mov.b	&0x11d9,r11	
    7522:	b0 12 e6 49 	call	#0x49e6	
    7526:	b0 12 d4 49 	call	#0x49d4	
    752a:	4e 4b       	mov.b	r11,	r14	
    752c:	0e 5e       	rla	r14		
    752e:	8e 4a 0e 11 	mov	r10,	4366(r14);0x110e(r14)
    7532:	5e 42 58 11 	mov.b	&0x1158,r14	
    7536:	4b 93       	tst.b	r11		
    7538:	03 24       	jz	$+8      	;abs 0x7540
    753a:	7e f0 fb ff 	and.b	#-5,	r14	;#0xfffb
    753e:	02 3c       	jmp	$+6      	;abs 0x7544
    7540:	7e f0 fd ff 	and.b	#-3,	r14	;#0xfffd
    7544:	c2 4e 58 11 	mov.b	r14,	&0x1158	
    7548:	c2 43 46 11 	mov.b	#0,	&0x1146	;r3 As==00
    754c:	30 40 5a 6b 	br	#0x6b5a	
    7550:	b0 12 d4 49 	call	#0x49d4	
    7554:	d2 42 0e 12 08 11 	mov.b	&0x120e,&0x1108	
    755a:	f2 40 03 00 3c 11 	mov.b	#3,	&0x113c	;#0x0003
    7560:	b0 12 e6 49 	call	#0x49e6	
    7564:	c2 93 08 11 	tst.b	&0x1108	
    7568:	1e 20       	jnz	$+62     	;abs 0x75a6
    756a:	b0 12 62 68 	call	#0x6862	
    756e:	1b 3c       	jmp	$+56     	;abs 0x75a6
    7570:	f2 43 e4 14 	mov.b	#-1,	&0x14e4	;r3 As==11
    7574:	f2 43 e3 14 	mov.b	#-1,	&0x14e3	;r3 As==11
    7578:	f2 40 64 00 e9 14 	mov.b	#100,	&0x14e9	;#0x0064
    757e:	82 93 6a 14 	tst	&0x146a	
    7582:	0d 20       	jnz	$+28     	;abs 0x759e
    7584:	b2 40 de 14 6a 14 	mov	#5342,	&0x146a	;#0x14de
    758a:	f2 40 1c 00 e7 14 	mov.b	#28,	&0x14e7	;#0x001c
    7590:	c2 93 13 11 	tst.b	&0x1113	
    7594:	08 24       	jz	$+18     	;abs 0x75a6
    7596:	b0 12 5e 4e 	call	#0x4e5e	
    759a:	4f 93       	tst.b	r15		
    759c:	04 24       	jz	$+10     	;abs 0x75a6
    759e:	7f 40 18 00 	mov.b	#24,	r15	;#0x0018
    75a2:	b0 12 ee 49 	call	#0x49ee	
    75a6:	31 50 0a 00 	add	#10,	r1	;#0x000a
    75aa:	36 41       	pop	r6		
    75ac:	37 41       	pop	r7		
    75ae:	38 41       	pop	r8		
    75b0:	39 41       	pop	r9		
    75b2:	3a 41       	pop	r10		
    75b4:	3b 41       	pop	r11		
    75b6:	30 41       	ret			

000075b8 <RealMainP__Scheduler__runNextTask>:
    75b8:	f2 93 a1 14 	cmp.b	#-1,	&0x14a1	;r3 As==11
    75bc:	08 24       	jz	$+18     	;abs 0x75ce
    75be:	b0 12 50 49 	call	#0x4950	
    75c2:	7f 93       	cmp.b	#-1,	r15	;r3 As==11
    75c4:	06 24       	jz	$+14     	;abs 0x75d2
    75c6:	b0 12 4a 69 	call	#0x694a	
    75ca:	5f 43       	mov.b	#1,	r15	;r3 As==01
    75cc:	30 41       	ret			
    75ce:	4f 43       	clr.b	r15		
    75d0:	30 41       	ret			
    75d2:	4f 43       	clr.b	r15		
    75d4:	30 41       	ret			

000075d6 <sig_TIMERA0_VECTOR>:
    75d6:	0f 12       	push	r15		
    75d8:	0e 12       	push	r14		
    75da:	0d 12       	push	r13		
    75dc:	0c 12       	push	r12		
    75de:	4f 43       	clr.b	r15		
    75e0:	b0 12 6e 49 	call	#0x496e	
    75e4:	3c 41       	pop	r12		
    75e6:	3d 41       	pop	r13		
    75e8:	3e 41       	pop	r14		
    75ea:	3f 41       	pop	r15		
    75ec:	b1 c0 f0 00 00 00 	bic	#240,	0(r1)	;#0x00f0, 0x0000(r1)
    75f2:	00 13       	reti			

000075f4 <sig_TIMERA1_VECTOR>:
    75f4:	0f 12       	push	r15		
    75f6:	0e 12       	push	r14		
    75f8:	0d 12       	push	r13		
    75fa:	0c 12       	push	r12		
    75fc:	1f 42 2e 01 	mov	&0x012e,r15	
    7600:	4f 4f       	mov.b	r15,	r15	
    7602:	12 c3       	clrc			
    7604:	4f 10       	rrc.b	r15		
    7606:	b0 12 6e 49 	call	#0x496e	
    760a:	3c 41       	pop	r12		
    760c:	3d 41       	pop	r13		
    760e:	3e 41       	pop	r14		
    7610:	3f 41       	pop	r15		
    7612:	b1 c0 f0 00 00 00 	bic	#240,	0(r1)	;#0x00f0, 0x0000(r1)
    7618:	00 13       	reti			

0000761a <sig_TIMERB0_VECTOR>:
    761a:	0f 12       	push	r15		
    761c:	0e 12       	push	r14		
    761e:	0d 12       	push	r13		
    7620:	0c 12       	push	r12		
    7622:	4f 43       	clr.b	r15		
    7624:	b0 12 a6 64 	call	#0x64a6	
    7628:	3c 41       	pop	r12		
    762a:	3d 41       	pop	r13		
    762c:	3e 41       	pop	r14		
    762e:	3f 41       	pop	r15		
    7630:	b1 c0 f0 00 00 00 	bic	#240,	0(r1)	;#0x00f0, 0x0000(r1)
    7636:	00 13       	reti			

00007638 <sig_TIMERB1_VECTOR>:
    7638:	0f 12       	push	r15		
    763a:	0e 12       	push	r14		
    763c:	0d 12       	push	r13		
    763e:	0c 12       	push	r12		
    7640:	1f 42 1e 01 	mov	&0x011e,r15	
    7644:	4f 4f       	mov.b	r15,	r15	
    7646:	12 c3       	clrc			
    7648:	4f 10       	rrc.b	r15		
    764a:	b0 12 a6 64 	call	#0x64a6	
    764e:	3c 41       	pop	r12		
    7650:	3d 41       	pop	r13		
    7652:	3e 41       	pop	r14		
    7654:	3f 41       	pop	r15		
    7656:	b1 c0 f0 00 00 00 	bic	#240,	0(r1)	;#0x00f0, 0x0000(r1)
    765c:	00 13       	reti			

0000765e <sig_PORT1_VECTOR>:
    765e:	0f 12       	push	r15		
    7660:	0e 12       	push	r14		
    7662:	0d 12       	push	r13		
    7664:	0c 12       	push	r12		
    7666:	21 83       	decd	r1		
    7668:	5e 42 23 00 	mov.b	&0x0023,r14	
    766c:	5f 42 25 00 	mov.b	&0x0025,r15	
    7670:	4f fe       	and.b	r14,	r15	
    7672:	4f 4f       	mov.b	r15,	r15	
    7674:	81 4f 00 00 	mov	r15,	0(r1)	;0x0000(r1)
    7678:	91 b3 00 00 	bit	#1,	0(r1)	;r3 As==01, 0x0000(r1)
    767c:	0e 24       	jz	$+30     	;abs 0x769a
    767e:	f2 f0 fe ff 23 00 	and.b	#-2,	&0x0023	;#0xfffe
    7684:	92 93 f6 11 	cmp	#1,	&0x11f6	;r3 As==01
    7688:	05 20       	jnz	$+12     	;abs 0x7694
    768a:	a2 43 f6 11 	mov	#2,	&0x11f6	;r3 As==10
    768e:	b0 12 16 5d 	call	#0x5d16	
    7692:	55 3c       	jmp	$+172    	;abs 0x773e
    7694:	d2 53 fd 11 	inc.b	&0x11fd	
    7698:	52 3c       	jmp	$+166    	;abs 0x773e
    769a:	a1 b3 00 00 	bit	#2,	0(r1)	;r3 As==10, 0x0000(r1)
    769e:	05 24       	jz	$+12     	;abs 0x76aa
    76a0:	5f 42 23 00 	mov.b	&0x0023,r15	
    76a4:	7f f0 fd ff 	and.b	#-3,	r15	;#0xfffd
    76a8:	48 3c       	jmp	$+146    	;abs 0x773a
    76aa:	a1 b2 00 00 	bit	#4,	0(r1)	;r2 As==10, 0x0000(r1)
    76ae:	05 24       	jz	$+12     	;abs 0x76ba
    76b0:	5f 42 23 00 	mov.b	&0x0023,r15	
    76b4:	7f f0 fb ff 	and.b	#-5,	r15	;#0xfffb
    76b8:	40 3c       	jmp	$+130    	;abs 0x773a
    76ba:	b1 b2 00 00 	bit	#8,	0(r1)	;r2 As==11, 0x0000(r1)
    76be:	05 24       	jz	$+12     	;abs 0x76ca
    76c0:	5f 42 23 00 	mov.b	&0x0023,r15	
    76c4:	7f f0 f7 ff 	and.b	#-9,	r15	;#0xfff7
    76c8:	38 3c       	jmp	$+114    	;abs 0x773a
    76ca:	b1 b0 10 00 00 00 	bit	#16,	0(r1)	;#0x0010, 0x0000(r1)
    76d0:	1a 24       	jz	$+54     	;abs 0x7706
    76d2:	f2 f0 ef ff 23 00 	and.b	#-17,	&0x0023	;#0xffef
    76d8:	a2 42 82 11 	mov	#4,	&0x1182	;r2 As==10
    76dc:	f2 f0 ef ff 25 00 	and.b	#-17,	&0x0025	;#0xffef
    76e2:	f2 f0 ef ff 23 00 	and.b	#-17,	&0x0023	;#0xffef
    76e8:	0e 43       	clr	r14		
    76ea:	7f 40 1d 00 	mov.b	#29,	r15	;#0x001d
    76ee:	b0 12 92 56 	call	#0x5692	
    76f2:	b0 12 4e 57 	call	#0x574e	
    76f6:	b0 12 84 53 	call	#0x5384	
    76fa:	b0 12 80 52 	call	#0x5280	
    76fe:	4f 43       	clr.b	r15		
    7700:	b0 12 ee 49 	call	#0x49ee	
    7704:	1c 3c       	jmp	$+58     	;abs 0x773e
    7706:	b1 b0 20 00 00 00 	bit	#32,	0(r1)	;#0x0020, 0x0000(r1)
    770c:	05 24       	jz	$+12     	;abs 0x7718
    770e:	5f 42 23 00 	mov.b	&0x0023,r15	
    7712:	7f f0 df ff 	and.b	#-33,	r15	;#0xffdf
    7716:	11 3c       	jmp	$+36     	;abs 0x773a
    7718:	b1 b0 40 00 00 00 	bit	#64,	0(r1)	;#0x0040, 0x0000(r1)
    771e:	05 24       	jz	$+12     	;abs 0x772a
    7720:	5f 42 23 00 	mov.b	&0x0023,r15	
    7724:	7f f0 bf ff 	and.b	#-65,	r15	;#0xffbf
    7728:	08 3c       	jmp	$+18     	;abs 0x773a
    772a:	b1 b0 80 00 00 00 	bit	#128,	0(r1)	;#0x0080, 0x0000(r1)
    7730:	06 24       	jz	$+14     	;abs 0x773e
    7732:	5f 42 23 00 	mov.b	&0x0023,r15	
    7736:	7f f0 7f 00 	and.b	#127,	r15	;#0x007f
    773a:	c2 4f 23 00 	mov.b	r15,	&0x0023	
    773e:	21 53       	incd	r1		
    7740:	3c 41       	pop	r12		
    7742:	3d 41       	pop	r13		
    7744:	3e 41       	pop	r14		
    7746:	3f 41       	pop	r15		
    7748:	b1 c0 f0 00 00 00 	bic	#240,	0(r1)	;#0x00f0, 0x0000(r1)
    774e:	00 13       	reti			

00007750 <sig_PORT2_VECTOR>:
    7750:	0f 12       	push	r15		
    7752:	0e 12       	push	r14		
    7754:	21 83       	decd	r1		
    7756:	5e 42 2b 00 	mov.b	&0x002b,r14	
    775a:	5f 42 2d 00 	mov.b	&0x002d,r15	
    775e:	4f fe       	and.b	r14,	r15	
    7760:	4f 4f       	mov.b	r15,	r15	
    7762:	81 4f 00 00 	mov	r15,	0(r1)	;0x0000(r1)
    7766:	91 b3 00 00 	bit	#1,	0(r1)	;r3 As==01, 0x0000(r1)
    776a:	05 24       	jz	$+12     	;abs 0x7776
    776c:	5f 42 2b 00 	mov.b	&0x002b,r15	
    7770:	7f f0 fe ff 	and.b	#-2,	r15	;#0xfffe
    7774:	3b 3c       	jmp	$+120    	;abs 0x77ec
    7776:	a1 b3 00 00 	bit	#2,	0(r1)	;r3 As==10, 0x0000(r1)
    777a:	05 24       	jz	$+12     	;abs 0x7786
    777c:	5f 42 2b 00 	mov.b	&0x002b,r15	
    7780:	7f f0 fd ff 	and.b	#-3,	r15	;#0xfffd
    7784:	33 3c       	jmp	$+104    	;abs 0x77ec
    7786:	a1 b2 00 00 	bit	#4,	0(r1)	;r2 As==10, 0x0000(r1)
    778a:	05 24       	jz	$+12     	;abs 0x7796
    778c:	5f 42 2b 00 	mov.b	&0x002b,r15	
    7790:	7f f0 fb ff 	and.b	#-5,	r15	;#0xfffb
    7794:	2b 3c       	jmp	$+88     	;abs 0x77ec
    7796:	b1 b2 00 00 	bit	#8,	0(r1)	;r2 As==11, 0x0000(r1)
    779a:	05 24       	jz	$+12     	;abs 0x77a6
    779c:	5f 42 2b 00 	mov.b	&0x002b,r15	
    77a0:	7f f0 f7 ff 	and.b	#-9,	r15	;#0xfff7
    77a4:	23 3c       	jmp	$+72     	;abs 0x77ec
    77a6:	b1 b0 10 00 00 00 	bit	#16,	0(r1)	;#0x0010, 0x0000(r1)
    77ac:	05 24       	jz	$+12     	;abs 0x77b8
    77ae:	5f 42 2b 00 	mov.b	&0x002b,r15	
    77b2:	7f f0 ef ff 	and.b	#-17,	r15	;#0xffef
    77b6:	1a 3c       	jmp	$+54     	;abs 0x77ec
    77b8:	b1 b0 20 00 00 00 	bit	#32,	0(r1)	;#0x0020, 0x0000(r1)
    77be:	05 24       	jz	$+12     	;abs 0x77ca
    77c0:	5f 42 2b 00 	mov.b	&0x002b,r15	
    77c4:	7f f0 df ff 	and.b	#-33,	r15	;#0xffdf
    77c8:	11 3c       	jmp	$+36     	;abs 0x77ec
    77ca:	b1 b0 40 00 00 00 	bit	#64,	0(r1)	;#0x0040, 0x0000(r1)
    77d0:	05 24       	jz	$+12     	;abs 0x77dc
    77d2:	5f 42 2b 00 	mov.b	&0x002b,r15	
    77d6:	7f f0 bf ff 	and.b	#-65,	r15	;#0xffbf
    77da:	08 3c       	jmp	$+18     	;abs 0x77ec
    77dc:	b1 b0 80 00 00 00 	bit	#128,	0(r1)	;#0x0080, 0x0000(r1)
    77e2:	06 24       	jz	$+14     	;abs 0x77f0
    77e4:	5f 42 2b 00 	mov.b	&0x002b,r15	
    77e8:	7f f0 7f 00 	and.b	#127,	r15	;#0x007f
    77ec:	c2 4f 2b 00 	mov.b	r15,	&0x002b	
    77f0:	21 53       	incd	r1		
    77f2:	3e 41       	pop	r14		
    77f4:	3f 41       	pop	r15		
    77f6:	b1 c0 f0 00 00 00 	bic	#240,	0(r1)	;#0x00f0, 0x0000(r1)
    77fc:	00 13       	reti			

000077fe <sig_UART0RX_VECTOR>:
    77fe:	0f 12       	push	r15		
    7800:	0e 12       	push	r14		
    7802:	0d 12       	push	r13		
    7804:	0c 12       	push	r12		
    7806:	5e 42 76 00 	mov.b	&0x0076,r14	
    780a:	5f 42 7e 11 	mov.b	&0x117e,r15	
    780e:	4f 93       	tst.b	r15		
    7810:	1c 24       	jz	$+58     	;abs 0x784a
    7812:	18 3c       	jmp	$+50     	;abs 0x7844
    7814:	c2 93 20 11 	tst.b	&0x1120	
    7818:	18 20       	jnz	$+50     	;abs 0x784a
    781a:	1f 42 1e 13 	mov	&0x131e,r15	
    781e:	0f 93       	tst	r15		
    7820:	04 24       	jz	$+10     	;abs 0x782a
    7822:	1f 52 a4 14 	add	&0x14a4,r15	
    7826:	cf 4e ff ff 	mov.b	r14,	-1(r15)	;0xffff(r15)
    782a:	92 92 a8 14 a4 14 	cmp	&0x14a8,&0x14a4	
    7830:	03 2c       	jc	$+8      	;abs 0x7838
    7832:	b0 12 10 51 	call	#0x5110	
    7836:	09 3c       	jmp	$+20     	;abs 0x784a
    7838:	f2 f0 bf ff 00 00 	and.b	#-65,	&0x0000	;#0xffbf
    783e:	b0 12 b2 5d 	call	#0x5db2	
    7842:	03 3c       	jmp	$+8      	;abs 0x784a
    7844:	7f 90 03 00 	cmp.b	#3,	r15	;#0x0003
    7848:	e5 27       	jz	$-52     	;abs 0x7814
    784a:	3c 41       	pop	r12		
    784c:	3d 41       	pop	r13		
    784e:	3e 41       	pop	r14		
    7850:	3f 41       	pop	r15		
    7852:	b1 c0 f0 00 00 00 	bic	#240,	0(r1)	;#0x00f0, 0x0000(r1)
    7858:	00 13       	reti			

0000785a <sig_UART0TX_VECTOR>:
    785a:	0f 12       	push	r15		
    785c:	5f 42 70 00 	mov.b	&0x0070,r15	
    7860:	3f f0 20 00 	and	#32,	r15	;#0x0020
    7864:	06 24       	jz	$+14     	;abs 0x7872
    7866:	5f 42 70 00 	mov.b	&0x0070,r15	
    786a:	2f f2       	and	#4,	r15	;r2 As==10
    786c:	02 24       	jz	$+6      	;abs 0x7872
    786e:	5f 42 70 00 	mov.b	&0x0070,r15	
    7872:	3f 41       	pop	r15		
    7874:	b1 c0 f0 00 00 00 	bic	#240,	0(r1)	;#0x00f0, 0x0000(r1)
    787a:	00 13       	reti			

0000787c <sig_UART1RX_VECTOR>:
    787c:	0f 12       	push	r15		
    787e:	0e 12       	push	r14		
    7880:	0d 12       	push	r13		
    7882:	0c 12       	push	r12		
    7884:	5e 42 7e 00 	mov.b	&0x007e,r14	
    7888:	5f 42 3c 11 	mov.b	&0x113c,r15	
    788c:	4f 93       	tst.b	r15		
    788e:	31 24       	jz	$+100    	;abs 0x78f2
    7890:	2d 3c       	jmp	$+92     	;abs 0x78ec
    7892:	c2 93 08 11 	tst.b	&0x1108	
    7896:	2d 20       	jnz	$+92     	;abs 0x78f2
    7898:	1d 42 04 12 	mov	&0x1204,r13	
    789c:	0d 93       	tst	r13		
    789e:	0e 24       	jz	$+30     	;abs 0x78bc
    78a0:	1f 42 1c 13 	mov	&0x131c,r15	
    78a4:	0d 5f       	add	r15,	r13	
    78a6:	cd 4e 00 00 	mov.b	r14,	0(r13)	;0x0000(r13)
    78aa:	1f 53       	inc	r15		
    78ac:	82 4f 1c 13 	mov	r15,	&0x131c	
    78b0:	1f 92 80 12 	cmp	&0x1280,r15	
    78b4:	1e 28       	jnc	$+62     	;abs 0x78f2
    78b6:	82 43 04 12 	mov	#0,	&0x1204	;r3 As==00
    78ba:	1b 3c       	jmp	$+56     	;abs 0x78f2
    78bc:	7e 90 7e 00 	cmp.b	#126,	r14	;#0x007e
    78c0:	03 20       	jnz	$+8      	;abs 0x78c8
    78c2:	4e 43       	clr.b	r14		
    78c4:	5f 43       	mov.b	#1,	r15	;r3 As==01
    78c6:	0f 3c       	jmp	$+32     	;abs 0x78e6
    78c8:	7e 90 7d 00 	cmp.b	#125,	r14	;#0x007d
    78cc:	03 20       	jnz	$+8      	;abs 0x78d4
    78ce:	e2 d3 3e 11 	bis.b	#2,	&0x113e	;r3 As==10
    78d2:	0f 3c       	jmp	$+32     	;abs 0x78f2
    78d4:	e2 b3 3e 11 	bit.b	#2,	&0x113e	;r3 As==10
    78d8:	05 24       	jz	$+12     	;abs 0x78e4
    78da:	f2 f0 fd ff 3e 11 	and.b	#-3,	&0x113e	;#0xfffd
    78e0:	7e e0 20 00 	xor.b	#32,	r14	;#0x0020
    78e4:	4f 43       	clr.b	r15		
    78e6:	b0 12 36 4b 	call	#0x4b36	
    78ea:	03 3c       	jmp	$+8      	;abs 0x78f2
    78ec:	7f 90 03 00 	cmp.b	#3,	r15	;#0x0003
    78f0:	d0 27       	jz	$-94     	;abs 0x7892
    78f2:	3c 41       	pop	r12		
    78f4:	3d 41       	pop	r13		
    78f6:	3e 41       	pop	r14		
    78f8:	3f 41       	pop	r15		
    78fa:	b1 c0 f0 00 00 00 	bic	#240,	0(r1)	;#0x00f0, 0x0000(r1)
    7900:	00 13       	reti			

00007902 <sig_UART1TX_VECTOR>:
    7902:	0f 12       	push	r15		
    7904:	0e 12       	push	r14		
    7906:	0d 12       	push	r13		
    7908:	0c 12       	push	r12		
    790a:	5f 42 3c 11 	mov.b	&0x113c,r15	
    790e:	4f 93       	tst.b	r15		
    7910:	1e 24       	jz	$+62     	;abs 0x794e
    7912:	1a 3c       	jmp	$+54     	;abs 0x7948
    7914:	c2 93 08 11 	tst.b	&0x1108	
    7918:	1a 20       	jnz	$+54     	;abs 0x794e
    791a:	c2 93 8a 11 	tst.b	&0x118a	
    791e:	0f 20       	jnz	$+32     	;abs 0x793e
    7920:	1f 42 10 12 	mov	&0x1210,r15	
    7924:	1f 92 24 13 	cmp	&0x1324,r15	
    7928:	0a 2c       	jc	$+22     	;abs 0x793e
    792a:	1e 42 da 14 	mov	&0x14da,r14	
    792e:	0e 5f       	add	r15,	r14	
    7930:	6e 4e       	mov.b	@r14,	r14	
    7932:	1f 53       	inc	r15		
    7934:	82 4f 10 12 	mov	r15,	&0x1210	
    7938:	c2 4e 7f 00 	mov.b	r14,	&0x007f	
    793c:	08 3c       	jmp	$+18     	;abs 0x794e
    793e:	82 43 da 14 	mov	#0,	&0x14da	;r3 As==00
    7942:	b0 12 dc 4f 	call	#0x4fdc	
    7946:	03 3c       	jmp	$+8      	;abs 0x794e
    7948:	7f 90 03 00 	cmp.b	#3,	r15	;#0x0003
    794c:	e3 27       	jz	$-56     	;abs 0x7914
    794e:	3c 41       	pop	r12		
    7950:	3d 41       	pop	r13		
    7952:	3e 41       	pop	r14		
    7954:	3f 41       	pop	r15		
    7956:	b1 c0 f0 00 00 00 	bic	#240,	0(r1)	;#0x00f0, 0x0000(r1)
    795c:	00 13       	reti			

0000795e <printfflush>:
    795e:	b0 12 d4 49 	call	#0x49d4	
    7962:	d2 93 34 11 	cmp.b	#1,	&0x1134	;r3 As==01
    7966:	04 20       	jnz	$+10     	;abs 0x7970
    7968:	b0 12 e6 49 	call	#0x49e6	
    796c:	0f 43       	clr	r15		
    796e:	30 41       	ret			
    7970:	c2 93 36 11 	tst.b	&0x1136	
    7974:	04 20       	jnz	$+10     	;abs 0x797e
    7976:	b0 12 e6 49 	call	#0x49e6	
    797a:	1f 43       	mov	#1,	r15	;r3 As==01
    797c:	30 41       	ret			
    797e:	d2 43 34 11 	mov.b	#1,	&0x1134	;r3 As==01
    7982:	b0 12 e6 49 	call	#0x49e6	
    7986:	b0 12 8c 4e 	call	#0x4e8c	
    798a:	0f 43       	clr	r15		
    798c:	30 41       	ret			

0000798e <putchar>:
    798e:	0b 12       	push	r11		
    7990:	0b 4f       	mov	r15,	r11	
    7992:	c2 93 34 11 	tst.b	&0x1134	
    7996:	08 20       	jnz	$+18     	;abs 0x79a8
    7998:	f2 90 7d 00 36 11 	cmp.b	#125,	&0x1136	;#0x007d
    799e:	04 28       	jnc	$+10     	;abs 0x79a8
    79a0:	d2 43 34 11 	mov.b	#1,	&0x1134	;r3 As==01
    79a4:	b0 12 8c 4e 	call	#0x4e8c	
    79a8:	b0 12 d4 49 	call	#0x49d4	
    79ac:	4e 4f       	mov.b	r15,	r14	
    79ae:	5c 42 36 11 	mov.b	&0x1136,r12	
    79b2:	7c 90 fa ff 	cmp.b	#-6,	r12	;#0xfffa
    79b6:	15 2c       	jc	$+44     	;abs 0x79e2
    79b8:	5f 42 38 11 	mov.b	&0x1138,r15	
    79bc:	4d 4f       	mov.b	r15,	r13	
    79be:	cd 4b 44 13 	mov.b	r11,	4932(r13);0x1344(r13)
    79c2:	5f 53       	inc.b	r15		
    79c4:	c2 4f 38 11 	mov.b	r15,	&0x1138	
    79c8:	7f 90 fa ff 	cmp.b	#-6,	r15	;#0xfffa
    79cc:	02 20       	jnz	$+6      	;abs 0x79d2
    79ce:	c2 43 38 11 	mov.b	#0,	&0x1138	;r3 As==00
    79d2:	5c 53       	inc.b	r12		
    79d4:	c2 4c 36 11 	mov.b	r12,	&0x1136	
    79d8:	4f 4e       	mov.b	r14,	r15	
    79da:	b0 12 e6 49 	call	#0x49e6	
    79de:	0f 43       	clr	r15		
    79e0:	03 3c       	jmp	$+8      	;abs 0x79e8
    79e2:	b0 12 e6 49 	call	#0x49e6	
    79e6:	3f 43       	mov	#-1,	r15	;r3 As==11
    79e8:	3b 41       	pop	r11		
    79ea:	30 41       	ret			

000079ec <__umulsidi3>:
    79ec:	0b 12       	push	r11		
    79ee:	0a 12       	push	r10		
    79f0:	09 12       	push	r9		
    79f2:	08 12       	push	r8		
    79f4:	07 12       	push	r7		
    79f6:	06 12       	push	r6		
    79f8:	05 12       	push	r5		
    79fa:	04 12       	push	r4		
    79fc:	08 4c       	mov	r12,	r8	
    79fe:	09 4d       	mov	r13,	r9	
    7a00:	0a 43       	clr	r10		
    7a02:	0b 43       	clr	r11		
    7a04:	0c 4e       	mov	r14,	r12	
    7a06:	0d 4f       	mov	r15,	r13	
    7a08:	0e 43       	clr	r14		
    7a0a:	0f 43       	clr	r15		
    7a0c:	b0 12 58 7a 	call	#0x7a58	
    7a10:	34 41       	pop	r4		
    7a12:	35 41       	pop	r5		
    7a14:	36 41       	pop	r6		
    7a16:	37 41       	pop	r7		
    7a18:	38 41       	pop	r8		
    7a1a:	39 41       	pop	r9		
    7a1c:	3a 41       	pop	r10		
    7a1e:	3b 41       	pop	r11		
    7a20:	30 41       	ret			

00007a22 <__muldi3>:
    7a22:	0b 12       	push	r11		
    7a24:	0a 12       	push	r10		
    7a26:	09 12       	push	r9		
    7a28:	08 12       	push	r8		
    7a2a:	07 12       	push	r7		
    7a2c:	06 12       	push	r6		
    7a2e:	05 12       	push	r5		
    7a30:	04 12       	push	r4		
    7a32:	18 41 12 00 	mov	18(r1),	r8	;0x0012(r1)
    7a36:	19 41 14 00 	mov	20(r1),	r9	;0x0014(r1)
    7a3a:	1a 41 16 00 	mov	22(r1),	r10	;0x0016(r1)
    7a3e:	1b 41 18 00 	mov	24(r1),	r11	;0x0018(r1)
    7a42:	b0 12 58 7a 	call	#0x7a58	
    7a46:	34 41       	pop	r4		
    7a48:	35 41       	pop	r5		
    7a4a:	36 41       	pop	r6		
    7a4c:	37 41       	pop	r7		
    7a4e:	38 41       	pop	r8		
    7a50:	39 41       	pop	r9		
    7a52:	3a 41       	pop	r10		
    7a54:	3b 41       	pop	r11		
    7a56:	30 41       	ret			

00007a58 <__xabi_muldi3>:
    7a58:	04 43       	clr	r4		
    7a5a:	05 43       	clr	r5		
    7a5c:	06 43       	clr	r6		
    7a5e:	07 43       	clr	r7		
    7a60:	0e 3c       	jmp	$+30     	;abs 0x7a7e
    7a62:	12 c3       	clrc			
    7a64:	0b 10       	rrc	r11		
    7a66:	0a 10       	rrc	r10		
    7a68:	09 10       	rrc	r9		
    7a6a:	08 10       	rrc	r8		
    7a6c:	04 28       	jnc	$+10     	;abs 0x7a76
    7a6e:	04 5c       	add	r12,	r4	
    7a70:	05 6d       	addc	r13,	r5	
    7a72:	06 6e       	addc	r14,	r6	
    7a74:	07 6f       	addc	r15,	r7	
    7a76:	0c 5c       	rla	r12		
    7a78:	0d 6d       	rlc	r13		
    7a7a:	0e 6e       	rlc	r14		
    7a7c:	0f 6f       	rlc	r15		
    7a7e:	08 93       	tst	r8		
    7a80:	f0 23       	jnz	$-30     	;abs 0x7a62
    7a82:	09 93       	tst	r9		
    7a84:	ee 23       	jnz	$-34     	;abs 0x7a62
    7a86:	0a 93       	tst	r10		
    7a88:	ec 23       	jnz	$-38     	;abs 0x7a62
    7a8a:	0b 93       	tst	r11		
    7a8c:	ea 23       	jnz	$-42     	;abs 0x7a62
    7a8e:	0c 44       	mov	r4,	r12	
    7a90:	0d 45       	mov	r5,	r13	
    7a92:	0e 46       	mov	r6,	r14	
    7a94:	0f 47       	mov	r7,	r15	
    7a96:	30 41       	ret			

00007a98 <__udivhi3>:
    7a98:	7c 40 10 00 	mov.b	#16,	r12	;#0x0010
    7a9c:	0d 4e       	mov	r14,	r13	
    7a9e:	0e 43       	clr	r14		
    7aa0:	0f 5f       	rla	r15		
    7aa2:	0e 6e       	rlc	r14		
    7aa4:	0e 9d       	cmp	r13,	r14	
    7aa6:	02 28       	jnc	$+6      	;abs 0x7aac
    7aa8:	0e 8d       	sub	r13,	r14	
    7aaa:	1f d3       	bis	#1,	r15	;r3 As==01
    7aac:	1c 83       	dec	r12		
    7aae:	f8 23       	jnz	$-14     	;abs 0x7aa0
    7ab0:	30 41       	ret			

00007ab2 <__umodhi3>:
    7ab2:	b0 12 98 7a 	call	#0x7a98	
    7ab6:	0f 4e       	mov	r14,	r15	
    7ab8:	30 41       	ret			

00007aba <memcmp>:
    7aba:	0b 12       	push	r11		
    7abc:	0d 93       	tst	r13		
    7abe:	0a 24       	jz	$+22     	;abs 0x7ad4
    7ac0:	7b 4f       	mov.b	@r15+,	r11	
    7ac2:	7c 4e       	mov.b	@r14+,	r12	
    7ac4:	4b 9c       	cmp.b	r12,	r11	
    7ac6:	04 24       	jz	$+10     	;abs 0x7ad0
    7ac8:	4f 4b       	mov.b	r11,	r15	
    7aca:	4e 4c       	mov.b	r12,	r14	
    7acc:	0f 8e       	sub	r14,	r15	
    7ace:	03 3c       	jmp	$+8      	;abs 0x7ad6
    7ad0:	3d 53       	add	#-1,	r13	;r3 As==11
    7ad2:	f4 3f       	jmp	$-22     	;abs 0x7abc
    7ad4:	0f 43       	clr	r15		
    7ad6:	3b 41       	pop	r11		
    7ad8:	30 41       	ret			

00007ada <memcpy>:
    7ada:	0b 12       	push	r11		
    7adc:	0a 12       	push	r10		
    7ade:	09 12       	push	r9		
    7ae0:	08 12       	push	r8		
    7ae2:	07 12       	push	r7		
    7ae4:	0d 93       	tst	r13		
    7ae6:	70 24       	jz	$+226    	;abs 0x7bc8
    7ae8:	0f 9e       	cmp	r14,	r15	
    7aea:	6e 24       	jz	$+222    	;abs 0x7bc8
    7aec:	34 2c       	jc	$+106    	;abs 0x7b56
    7aee:	0c 4e       	mov	r14,	r12	
    7af0:	0c df       	bis	r15,	r12	
    7af2:	1c f3       	and	#1,	r12	;r3 As==01
    7af4:	1b 24       	jz	$+56     	;abs 0x7b2c
    7af6:	0c 4e       	mov	r14,	r12	
    7af8:	0c ef       	xor	r15,	r12	
    7afa:	1c f3       	and	#1,	r12	;r3 As==01
    7afc:	07 20       	jnz	$+16     	;abs 0x7b0c
    7afe:	2d 93       	cmp	#2,	r13	;r3 As==10
    7b00:	07 28       	jnc	$+16     	;abs 0x7b10
    7b02:	0b 4e       	mov	r14,	r11	
    7b04:	1b f3       	and	#1,	r11	;r3 As==01
    7b06:	2c 43       	mov	#2,	r12	;r3 As==10
    7b08:	0c 8b       	sub	r11,	r12	
    7b0a:	03 3c       	jmp	$+8      	;abs 0x7b12
    7b0c:	0c 4d       	mov	r13,	r12	
    7b0e:	01 3c       	jmp	$+4      	;abs 0x7b12
    7b10:	1c 43       	mov	#1,	r12	;r3 As==01
    7b12:	0d 8c       	sub	r12,	r13	
    7b14:	0a 4c       	mov	r12,	r10	
    7b16:	09 4e       	mov	r14,	r9	
    7b18:	0b 4f       	mov	r15,	r11	
    7b1a:	fb 49 00 00 	mov.b	@r9+,	0(r11)	;0x0000(r11)
    7b1e:	1b 53       	inc	r11		
    7b20:	3a 53       	add	#-1,	r10	;r3 As==11
    7b22:	fb 23       	jnz	$-8      	;abs 0x7b1a
    7b24:	0a 4f       	mov	r15,	r10	
    7b26:	0a 5c       	add	r12,	r10	
    7b28:	0e 5c       	add	r12,	r14	
    7b2a:	01 3c       	jmp	$+4      	;abs 0x7b2e
    7b2c:	0a 4f       	mov	r15,	r10	
    7b2e:	0b 4d       	mov	r13,	r11	
    7b30:	12 c3       	clrc			
    7b32:	0b 10       	rrc	r11		
    7b34:	0b 24       	jz	$+24     	;abs 0x7b4c
    7b36:	09 4b       	mov	r11,	r9	
    7b38:	08 4e       	mov	r14,	r8	
    7b3a:	0c 4a       	mov	r10,	r12	
    7b3c:	bc 48 00 00 	mov	@r8+,	0(r12)	;0x0000(r12)
    7b40:	2c 53       	incd	r12		
    7b42:	39 53       	add	#-1,	r9	;r3 As==11
    7b44:	fb 23       	jnz	$-8      	;abs 0x7b3c
    7b46:	0b 5b       	rla	r11		
    7b48:	0e 5b       	add	r11,	r14	
    7b4a:	0a 5b       	add	r11,	r10	
    7b4c:	1d f3       	and	#1,	r13	;r3 As==01
    7b4e:	3c 24       	jz	$+122    	;abs 0x7bc8
    7b50:	ea 4e 00 00 	mov.b	@r14,	0(r10)	;0x0000(r10)
    7b54:	39 3c       	jmp	$+116    	;abs 0x7bc8
    7b56:	0e 5d       	add	r13,	r14	
    7b58:	0c 4f       	mov	r15,	r12	
    7b5a:	0c 5d       	add	r13,	r12	
    7b5c:	0b 4c       	mov	r12,	r11	
    7b5e:	0b de       	bis	r14,	r11	
    7b60:	1b f3       	and	#1,	r11	;r3 As==01
    7b62:	1b 24       	jz	$+56     	;abs 0x7b9a
    7b64:	0b 4c       	mov	r12,	r11	
    7b66:	0b ee       	xor	r14,	r11	
    7b68:	1b f3       	and	#1,	r11	;r3 As==01
    7b6a:	06 20       	jnz	$+14     	;abs 0x7b78
    7b6c:	3d 90 03 00 	cmp	#3,	r13	;#0x0003
    7b70:	03 28       	jnc	$+8      	;abs 0x7b78
    7b72:	0b 4e       	mov	r14,	r11	
    7b74:	1b f3       	and	#1,	r11	;r3 As==01
    7b76:	01 3c       	jmp	$+4      	;abs 0x7b7a
    7b78:	0b 4d       	mov	r13,	r11	
    7b7a:	0d 8b       	sub	r11,	r13	
    7b7c:	09 4e       	mov	r14,	r9	
    7b7e:	0a 4c       	mov	r12,	r10	
    7b80:	08 4b       	mov	r11,	r8	
    7b82:	08 8c       	sub	r12,	r8	
    7b84:	3a 53       	add	#-1,	r10	;r3 As==11
    7b86:	39 53       	add	#-1,	r9	;r3 As==11
    7b88:	ea 49 00 00 	mov.b	@r9,	0(r10)	;0x0000(r10)
    7b8c:	07 4a       	mov	r10,	r7	
    7b8e:	07 58       	add	r8,	r7	
    7b90:	f9 23       	jnz	$-12     	;abs 0x7b84
    7b92:	3b e3       	inv	r11		
    7b94:	1b 53       	inc	r11		
    7b96:	0c 5b       	add	r11,	r12	
    7b98:	0e 5b       	add	r11,	r14	
    7b9a:	0b 4d       	mov	r13,	r11	
    7b9c:	12 c3       	clrc			
    7b9e:	0b 10       	rrc	r11		
    7ba0:	0e 24       	jz	$+30     	;abs 0x7bbe
    7ba2:	0a 4b       	mov	r11,	r10	
    7ba4:	08 4e       	mov	r14,	r8	
    7ba6:	09 4c       	mov	r12,	r9	
    7ba8:	28 83       	decd	r8		
    7baa:	29 83       	decd	r9		
    7bac:	a9 48 00 00 	mov	@r8,	0(r9)	;0x0000(r9)
    7bb0:	3a 53       	add	#-1,	r10	;r3 As==11
    7bb2:	fa 23       	jnz	$-10     	;abs 0x7ba8
    7bb4:	0a 8b       	sub	r11,	r10	
    7bb6:	0b 4a       	mov	r10,	r11	
    7bb8:	0b 5b       	rla	r11		
    7bba:	0e 5b       	add	r11,	r14	
    7bbc:	0c 5b       	add	r11,	r12	
    7bbe:	1d f3       	and	#1,	r13	;r3 As==01
    7bc0:	03 24       	jz	$+8      	;abs 0x7bc8
    7bc2:	dc 4e ff ff ff ff 	mov.b	-1(r14),-1(r12)	;0xffff(r14), 0xffff(r12)
    7bc8:	37 41       	pop	r7		
    7bca:	38 41       	pop	r8		
    7bcc:	39 41       	pop	r9		
    7bce:	3a 41       	pop	r10		
    7bd0:	3b 41       	pop	r11		
    7bd2:	30 41       	ret			

00007bd4 <memset>:
    7bd4:	0b 12       	push	r11		
    7bd6:	0a 12       	push	r10		
    7bd8:	09 12       	push	r9		
    7bda:	08 12       	push	r8		
    7bdc:	3d 90 06 00 	cmp	#6,	r13	;#0x0006
    7be0:	09 2c       	jc	$+20     	;abs 0x7bf4
    7be2:	0c 4f       	mov	r15,	r12	
    7be4:	04 3c       	jmp	$+10     	;abs 0x7bee
    7be6:	cc 4e 00 00 	mov.b	r14,	0(r12)	;0x0000(r12)
    7bea:	1c 53       	inc	r12		
    7bec:	3d 53       	add	#-1,	r13	;r3 As==11
    7bee:	0d 93       	tst	r13		
    7bf0:	fa 23       	jnz	$-10     	;abs 0x7be6
    7bf2:	20 3c       	jmp	$+66     	;abs 0x7c34
    7bf4:	4e 4e       	mov.b	r14,	r14	
    7bf6:	4b 4e       	mov.b	r14,	r11	
    7bf8:	0b 93       	tst	r11		
    7bfa:	03 24       	jz	$+8      	;abs 0x7c02
    7bfc:	0c 4b       	mov	r11,	r12	
    7bfe:	8c 10       	swpb	r12		
    7c00:	0b dc       	bis	r12,	r11	
    7c02:	1f b3       	bit	#1,	r15	;r3 As==01
    7c04:	06 24       	jz	$+14     	;abs 0x7c12
    7c06:	3d 53       	add	#-1,	r13	;r3 As==11
    7c08:	cf 4e 00 00 	mov.b	r14,	0(r15)	;0x0000(r15)
    7c0c:	09 4f       	mov	r15,	r9	
    7c0e:	19 53       	inc	r9		
    7c10:	01 3c       	jmp	$+4      	;abs 0x7c14
    7c12:	09 4f       	mov	r15,	r9	
    7c14:	0c 4d       	mov	r13,	r12	
    7c16:	12 c3       	clrc			
    7c18:	0c 10       	rrc	r12		
    7c1a:	0a 49       	mov	r9,	r10	
    7c1c:	08 4c       	mov	r12,	r8	
    7c1e:	8a 4b 00 00 	mov	r11,	0(r10)	;0x0000(r10)
    7c22:	2a 53       	incd	r10		
    7c24:	38 53       	add	#-1,	r8	;r3 As==11
    7c26:	fb 23       	jnz	$-8      	;abs 0x7c1e
    7c28:	0c 5c       	rla	r12		
    7c2a:	0c 59       	add	r9,	r12	
    7c2c:	1d f3       	and	#1,	r13	;r3 As==01
    7c2e:	02 24       	jz	$+6      	;abs 0x7c34
    7c30:	cc 4e 00 00 	mov.b	r14,	0(r12)	;0x0000(r12)
    7c34:	38 41       	pop	r8		
    7c36:	39 41       	pop	r9		
    7c38:	3a 41       	pop	r10		
    7c3a:	3b 41       	pop	r11		
    7c3c:	30 41       	ret			

00007c3e <printf>:
    7c3e:	0d 41       	mov	r1,	r13	
    7c40:	2d 53       	incd	r13		
    7c42:	3e 4d       	mov	@r13+,	r14	
    7c44:	3f 40 8e 79 	mov	#31118,	r15	;#0x798e
    7c48:	b0 12 f4 7d 	call	#0x7df4	
    7c4c:	30 41       	ret			

00007c4e <vprintf>:
    7c4e:	0d 4e       	mov	r14,	r13	
    7c50:	0e 4f       	mov	r15,	r14	
    7c52:	3f 40 8e 79 	mov	#31118,	r15	;#0x798e
    7c56:	b0 12 f4 7d 	call	#0x7df4	
    7c5a:	30 41       	ret			

00007c5c <print_field>:
    7c5c:	0b 12       	push	r11		
    7c5e:	0a 12       	push	r10		
    7c60:	09 12       	push	r9		
    7c62:	08 12       	push	r8		
    7c64:	07 12       	push	r7		
    7c66:	06 12       	push	r6		
    7c68:	05 12       	push	r5		
    7c6a:	04 12       	push	r4		
    7c6c:	31 82       	sub	#8,	r1	;r2 As==11
    7c6e:	08 4f       	mov	r15,	r8	
    7c70:	81 4e 04 00 	mov	r14,	4(r1)	;0x0004(r1)
    7c74:	09 4d       	mov	r13,	r9	
    7c76:	1f 41 1a 00 	mov	26(r1),	r15	;0x001a(r1)
    7c7a:	1d 41 1c 00 	mov	28(r1),	r13	;0x001c(r1)
    7c7e:	4c 4d       	mov.b	r13,	r12	
    7c80:	04 4d       	mov	r13,	r4	
    7c82:	84 10       	swpb	r4		
    7c84:	45 44       	mov.b	r4,	r5	
    7c86:	4e 4f       	mov.b	r15,	r14	
    7c88:	7e b0 40 00 	bit.b	#64,	r14	;#0x0040
    7c8c:	11 24       	jz	$+36     	;abs 0x7cb0
    7c8e:	f1 40 30 00 00 00 	mov.b	#48,	0(r1)	;#0x0030, 0x0000(r1)
    7c94:	0e 4f       	mov	r15,	r14	
    7c96:	8e 10       	swpb	r14		
    7c98:	5e f3       	and.b	#1,	r14	;r3 As==01
    7c9a:	03 24       	jz	$+8      	;abs 0x7ca2
    7c9c:	7e 40 58 00 	mov.b	#88,	r14	;#0x0058
    7ca0:	02 3c       	jmp	$+6      	;abs 0x7ca6
    7ca2:	7e 40 78 00 	mov.b	#120,	r14	;#0x0078
    7ca6:	c1 4e 01 00 	mov.b	r14,	1(r1)	;0x0001(r1)
    7caa:	0c 41       	mov	r1,	r12	
    7cac:	2c 53       	incd	r12		
    7cae:	0f 3c       	jmp	$+32     	;abs 0x7cce
    7cb0:	7e f0 20 00 	and.b	#32,	r14	;#0x0020
    7cb4:	04 24       	jz	$+10     	;abs 0x7cbe
    7cb6:	f1 40 30 00 00 00 	mov.b	#48,	0(r1)	;#0x0030, 0x0000(r1)
    7cbc:	04 3c       	jmp	$+10     	;abs 0x7cc6
    7cbe:	4c 93       	tst.b	r12		
    7cc0:	05 24       	jz	$+12     	;abs 0x7ccc
    7cc2:	c1 4d 00 00 	mov.b	r13,	0(r1)	;0x0000(r1)
    7cc6:	0c 41       	mov	r1,	r12	
    7cc8:	1c 53       	inc	r12		
    7cca:	01 3c       	jmp	$+4      	;abs 0x7cce
    7ccc:	0c 41       	mov	r1,	r12	
    7cce:	0a 4c       	mov	r12,	r10	
    7cd0:	8c 10       	swpb	r12		
    7cd2:	8c 11       	sxt	r12		
    7cd4:	8c 10       	swpb	r12		
    7cd6:	8c 11       	sxt	r12		
    7cd8:	0b 4c       	mov	r12,	r11	
    7cda:	06 41       	mov	r1,	r6	
    7cdc:	0c 41       	mov	r1,	r12	
    7cde:	8c 10       	swpb	r12		
    7ce0:	8c 11       	sxt	r12		
    7ce2:	8c 10       	swpb	r12		
    7ce4:	8c 11       	sxt	r12		
    7ce6:	07 4c       	mov	r12,	r7	
    7ce8:	0a 86       	sub	r6,	r10	
    7cea:	0b 77       	subc	r7,	r11	
    7cec:	0e 4f       	mov	r15,	r14	
    7cee:	8e 10       	swpb	r14		
    7cf0:	c1 4e 02 00 	mov.b	r14,	2(r1)	;0x0002(r1)
    7cf4:	6e f2       	and.b	#4,	r14	;r2 As==10
    7cf6:	02 24       	jz	$+6      	;abs 0x7cfc
    7cf8:	07 45       	mov	r5,	r7	
    7cfa:	01 3c       	jmp	$+4      	;abs 0x7cfe
    7cfc:	37 43       	mov	#-1,	r7	;r3 As==11
    7cfe:	4f 4f       	mov.b	r15,	r15	
    7d00:	7f b0 10 00 	bit.b	#16,	r15	;#0x0010
    7d04:	3c 20       	jnz	$+122    	;abs 0x7d7e
    7d06:	1d 41 04 00 	mov	4(r1),	r13	;0x0004(r1)
    7d0a:	3d 53       	add	#-1,	r13	;r3 As==11
    7d0c:	1d 53       	inc	r13		
    7d0e:	cd 93 00 00 	tst.b	0(r13)		;0x0000(r13)
    7d12:	fc 23       	jnz	$-6      	;abs 0x7d0c
    7d14:	1d 81 04 00 	sub	4(r1),	r13	;0x0004(r1)
    7d18:	09 9a       	cmp	r10,	r9	
    7d1a:	02 28       	jnc	$+6      	;abs 0x7d20
    7d1c:	09 8a       	sub	r10,	r9	
    7d1e:	01 3c       	jmp	$+4      	;abs 0x7d22
    7d20:	09 43       	clr	r9		
    7d22:	e1 b3 02 00 	bit.b	#2,	2(r1)	;r3 As==10, 0x0002(r1)
    7d26:	05 24       	jz	$+12     	;abs 0x7d32
    7d28:	09 95       	cmp	r5,	r9	
    7d2a:	02 28       	jnc	$+6      	;abs 0x7d30
    7d2c:	09 85       	sub	r5,	r9	
    7d2e:	01 3c       	jmp	$+4      	;abs 0x7d32
    7d30:	09 43       	clr	r9		
    7d32:	05 4d       	mov	r13,	r5	
    7d34:	07 9d       	cmp	r13,	r7	
    7d36:	01 2c       	jc	$+4      	;abs 0x7d3a
    7d38:	05 47       	mov	r7,	r5	
    7d3a:	4f 93       	tst.b	r15		
    7d3c:	0d 38       	jl	$+28     	;abs 0x7d58
    7d3e:	f1 40 20 00 06 00 	mov.b	#32,	6(r1)	;#0x0020, 0x0006(r1)
    7d44:	06 43       	clr	r6		
    7d46:	0b 43       	clr	r11		
    7d48:	0e 3c       	jmp	$+30     	;abs 0x7d66
    7d4a:	0f 41       	mov	r1,	r15	
    7d4c:	0f 56       	add	r6,	r15	
    7d4e:	6f 4f       	mov.b	@r15,	r15	
    7d50:	8f 11       	sxt	r15		
    7d52:	16 53       	inc	r6		
    7d54:	88 12       	call	r8		
    7d56:	01 3c       	jmp	$+4      	;abs 0x7d5a
    7d58:	06 43       	clr	r6		
    7d5a:	06 9a       	cmp	r10,	r6	
    7d5c:	f6 3b       	jl	$-18     	;abs 0x7d4a
    7d5e:	0b 4a       	mov	r10,	r11	
    7d60:	f1 40 30 00 06 00 	mov.b	#48,	6(r1)	;#0x0030, 0x0006(r1)
    7d66:	05 8b       	sub	r11,	r5	
    7d68:	05 3c       	jmp	$+12     	;abs 0x7d74
    7d6a:	5f 41 06 00 	mov.b	6(r1),	r15	;0x0006(r1)
    7d6e:	8f 11       	sxt	r15		
    7d70:	88 12       	call	r8		
    7d72:	1b 53       	inc	r11		
    7d74:	0f 45       	mov	r5,	r15	
    7d76:	0f 5b       	add	r11,	r15	
    7d78:	0f 99       	cmp	r9,	r15	
    7d7a:	f7 2b       	jnc	$-16     	;abs 0x7d6a
    7d7c:	0a 3c       	jmp	$+22     	;abs 0x7d92
    7d7e:	06 43       	clr	r6		
    7d80:	0b 43       	clr	r11		
    7d82:	07 3c       	jmp	$+16     	;abs 0x7d92
    7d84:	1b 53       	inc	r11		
    7d86:	0f 41       	mov	r1,	r15	
    7d88:	0f 56       	add	r6,	r15	
    7d8a:	6f 4f       	mov.b	@r15,	r15	
    7d8c:	8f 11       	sxt	r15		
    7d8e:	16 53       	inc	r6		
    7d90:	88 12       	call	r8		
    7d92:	06 9a       	cmp	r10,	r6	
    7d94:	f7 3b       	jl	$-16     	;abs 0x7d84
    7d96:	e1 b3 02 00 	bit.b	#2,	2(r1)	;r3 As==10, 0x0002(r1)
    7d9a:	02 24       	jz	$+6      	;abs 0x7da0
    7d9c:	4a 44       	mov.b	r4,	r10	
    7d9e:	08 3c       	jmp	$+18     	;abs 0x7db0
    7da0:	1a 41 04 00 	mov	4(r1),	r10	;0x0004(r1)
    7da4:	0a 8b       	sub	r11,	r10	
    7da6:	0d 3c       	jmp	$+28     	;abs 0x7dc2
    7da8:	3f 40 30 00 	mov	#48,	r15	;#0x0030
    7dac:	88 12       	call	r8		
    7dae:	7a 53       	add.b	#-1,	r10	;r3 As==11
    7db0:	4a 93       	tst.b	r10		
    7db2:	fa 23       	jnz	$-10     	;abs 0x7da8
    7db4:	44 44       	mov.b	r4,	r4	
    7db6:	0b 54       	add	r4,	r11	
    7db8:	f3 3f       	jmp	$-24     	;abs 0x7da0
    7dba:	37 53       	add	#-1,	r7	;r3 As==11
    7dbc:	8f 11       	sxt	r15		
    7dbe:	88 12       	call	r8		
    7dc0:	1b 53       	inc	r11		
    7dc2:	0f 4a       	mov	r10,	r15	
    7dc4:	0f 5b       	add	r11,	r15	
    7dc6:	6f 4f       	mov.b	@r15,	r15	
    7dc8:	4f 93       	tst.b	r15		
    7dca:	07 24       	jz	$+16     	;abs 0x7dda
    7dcc:	07 93       	tst	r7		
    7dce:	f5 23       	jnz	$-20     	;abs 0x7dba
    7dd0:	04 3c       	jmp	$+10     	;abs 0x7dda
    7dd2:	3f 40 20 00 	mov	#32,	r15	;#0x0020
    7dd6:	88 12       	call	r8		
    7dd8:	1b 53       	inc	r11		
    7dda:	0b 99       	cmp	r9,	r11	
    7ddc:	fa 2b       	jnc	$-10     	;abs 0x7dd2
    7dde:	0f 4b       	mov	r11,	r15	
    7de0:	31 52       	add	#8,	r1	;r2 As==11
    7de2:	34 41       	pop	r4		
    7de4:	35 41       	pop	r5		
    7de6:	36 41       	pop	r6		
    7de8:	37 41       	pop	r7		
    7dea:	38 41       	pop	r8		
    7dec:	39 41       	pop	r9		
    7dee:	3a 41       	pop	r10		
    7df0:	3b 41       	pop	r11		
    7df2:	30 41       	ret			

00007df4 <vuprintf>:
    7df4:	0b 12       	push	r11		
    7df6:	0a 12       	push	r10		
    7df8:	09 12       	push	r9		
    7dfa:	08 12       	push	r8		
    7dfc:	07 12       	push	r7		
    7dfe:	06 12       	push	r6		
    7e00:	05 12       	push	r5		
    7e02:	04 12       	push	r4		
    7e04:	31 50 b6 ff 	add	#-74,	r1	;#0xffb6
    7e08:	81 4f 3a 00 	mov	r15,	58(r1)	;0x003a(r1)
    7e0c:	06 4e       	mov	r14,	r6	
    7e0e:	05 4d       	mov	r13,	r5	
    7e10:	81 4e 3e 00 	mov	r14,	62(r1)	;0x003e(r1)
    7e14:	c1 43 2f 00 	mov.b	#0,	47(r1)	;r3 As==00, 0x002f(r1)
    7e18:	c1 43 2b 00 	mov.b	#0,	43(r1)	;r3 As==00, 0x002b(r1)
    7e1c:	c1 43 2e 00 	mov.b	#0,	46(r1)	;r3 As==00, 0x002e(r1)
    7e20:	c1 43 2a 00 	mov.b	#0,	42(r1)	;r3 As==00, 0x002a(r1)
    7e24:	81 43 30 00 	mov	#0,	48(r1)	;r3 As==00, 0x0030(r1)
    7e28:	81 43 26 00 	mov	#0,	38(r1)	;r3 As==00, 0x0026(r1)
    7e2c:	07 43       	clr	r7		
    7e2e:	81 43 2c 00 	mov	#0,	44(r1)	;r3 As==00, 0x002c(r1)
    7e32:	0e 41       	mov	r1,	r14	
    7e34:	3e 50 1c 00 	add	#28,	r14	;#0x001c
    7e38:	81 4e 1c 00 	mov	r14,	28(r1)	;0x001c(r1)
    7e3c:	30 40 6e 84 	br	#0x846e	
    7e40:	0f 46       	mov	r6,	r15	
    7e42:	1f 53       	inc	r15		
    7e44:	81 4f 40 00 	mov	r15,	64(r1)	;0x0040(r1)
    7e48:	07 93       	tst	r7		
    7e4a:	1e 20       	jnz	$+62     	;abs 0x7e88
    7e4c:	7e 90 25 00 	cmp.b	#37,	r14	;#0x0025
    7e50:	13 20       	jnz	$+40     	;abs 0x7e78
    7e52:	81 43 00 00 	mov	#0,	0(r1)	;r3 As==00, 0x0000(r1)
    7e56:	81 43 02 00 	mov	#0,	2(r1)	;r3 As==00, 0x0002(r1)
    7e5a:	81 46 3e 00 	mov	r6,	62(r1)	;0x003e(r1)
    7e5e:	c1 43 2f 00 	mov.b	#0,	47(r1)	;r3 As==00, 0x002f(r1)
    7e62:	c1 43 2b 00 	mov.b	#0,	43(r1)	;r3 As==00, 0x002b(r1)
    7e66:	c1 43 2e 00 	mov.b	#0,	46(r1)	;r3 As==00, 0x002e(r1)
    7e6a:	c1 43 2a 00 	mov.b	#0,	42(r1)	;r3 As==00, 0x002a(r1)
    7e6e:	81 43 30 00 	mov	#0,	48(r1)	;r3 As==00, 0x0030(r1)
    7e72:	30 40 64 84 	br	#0x8464	
    7e76:	05 47       	mov	r7,	r5	
    7e78:	8e 11       	sxt	r14		
    7e7a:	0f 4e       	mov	r14,	r15	
    7e7c:	91 12 3c 00 	call	60(r1)		;0x003c(r1)
    7e80:	91 53 2c 00 	inc	44(r1)		;0x002c(r1)
    7e84:	30 40 4a 84 	br	#0x844a	
    7e88:	7e 90 63 00 	cmp.b	#99,	r14	;#0x0063
    7e8c:	c5 24       	jz	$+396    	;abs 0x8018
    7e8e:	7e 90 64 00 	cmp.b	#100,	r14	;#0x0064
    7e92:	27 34       	jge	$+80     	;abs 0x7ee2
    7e94:	7e 90 30 00 	cmp.b	#48,	r14	;#0x0030
    7e98:	94 24       	jz	$+298    	;abs 0x7fc2
    7e9a:	7e 90 31 00 	cmp.b	#49,	r14	;#0x0031
    7e9e:	1a 34       	jge	$+54     	;abs 0x7ed4
    7ea0:	7e 90 2a 00 	cmp.b	#42,	r14	;#0x002a
    7ea4:	77 24       	jz	$+240    	;abs 0x7f94
    7ea6:	7e 90 2b 00 	cmp.b	#43,	r14	;#0x002b
    7eaa:	0a 34       	jge	$+22     	;abs 0x7ec0
    7eac:	7e 90 23 00 	cmp.b	#35,	r14	;#0x0023
    7eb0:	42 24       	jz	$+134    	;abs 0x7f36
    7eb2:	7e 90 25 00 	cmp.b	#37,	r14	;#0x0025
    7eb6:	e0 27       	jz	$-62     	;abs 0x7e78
    7eb8:	7e 90 20 00 	cmp.b	#32,	r14	;#0x0020
    7ebc:	32 20       	jnz	$+102    	;abs 0x7f22
    7ebe:	56 3c       	jmp	$+174    	;abs 0x7f6c
    7ec0:	7e 90 2d 00 	cmp.b	#45,	r14	;#0x002d
    7ec4:	49 24       	jz	$+148    	;abs 0x7f58
    7ec6:	7e 90 2e 00 	cmp.b	#46,	r14	;#0x002e
    7eca:	5b 24       	jz	$+184    	;abs 0x7f82
    7ecc:	7e 90 2b 00 	cmp.b	#43,	r14	;#0x002b
    7ed0:	28 20       	jnz	$+82     	;abs 0x7f22
    7ed2:	47 3c       	jmp	$+144    	;abs 0x7f62
    7ed4:	7e 90 3a 00 	cmp.b	#58,	r14	;#0x003a
    7ed8:	8c 38       	jl	$+282    	;abs 0x7ff2
    7eda:	7e 90 58 00 	cmp.b	#88,	r14	;#0x0058
    7ede:	21 20       	jnz	$+68     	;abs 0x7f22
    7ee0:	e9 3c       	jmp	$+468    	;abs 0x80b4
    7ee2:	7e 90 6f 00 	cmp.b	#111,	r14	;#0x006f
    7ee6:	24 24       	jz	$+74     	;abs 0x7f30
    7ee8:	7e 90 70 00 	cmp.b	#112,	r14	;#0x0070
    7eec:	0a 34       	jge	$+22     	;abs 0x7f02
    7eee:	7e 90 69 00 	cmp.b	#105,	r14	;#0x0069
    7ef2:	e3 24       	jz	$+456    	;abs 0x80ba
    7ef4:	7e 90 6c 00 	cmp.b	#108,	r14	;#0x006c
    7ef8:	22 24       	jz	$+70     	;abs 0x7f3e
    7efa:	7e 90 64 00 	cmp.b	#100,	r14	;#0x0064
    7efe:	11 20       	jnz	$+36     	;abs 0x7f22
    7f00:	dc 3c       	jmp	$+442    	;abs 0x80ba
    7f02:	7e 90 73 00 	cmp.b	#115,	r14	;#0x0073
    7f06:	98 24       	jz	$+306    	;abs 0x8038
    7f08:	7e 90 74 00 	cmp.b	#116,	r14	;#0x0074
    7f0c:	04 34       	jge	$+10     	;abs 0x7f16
    7f0e:	7e 90 70 00 	cmp.b	#112,	r14	;#0x0070
    7f12:	07 20       	jnz	$+16     	;abs 0x7f22
    7f14:	b8 3c       	jmp	$+370    	;abs 0x8086
    7f16:	7e 90 75 00 	cmp.b	#117,	r14	;#0x0075
    7f1a:	d1 24       	jz	$+420    	;abs 0x80be
    7f1c:	7e 90 78 00 	cmp.b	#120,	r14	;#0x0078
    7f20:	d2 24       	jz	$+422    	;abs 0x80c6
    7f22:	19 41 3e 00 	mov	62(r1),	r9	;0x003e(r1)
    7f26:	18 41 2c 00 	mov	44(r1),	r8	;0x002c(r1)
    7f2a:	08 89       	sub	r9,	r8	
    7f2c:	30 40 38 84 	br	#0x8438	
    7f30:	b1 42 28 00 	mov	#8,	40(r1)	;r2 As==11, 0x0028(r1)
    7f34:	cb 3c       	jmp	$+408    	;abs 0x80cc
    7f36:	f1 d2 00 00 	bis.b	#8,	0(r1)	;r2 As==11, 0x0000(r1)
    7f3a:	30 40 68 84 	br	#0x8468	
    7f3e:	69 41       	mov.b	@r1,	r9	
    7f40:	59 f3       	and.b	#1,	r9	;r3 As==01
    7f42:	6e 41       	mov.b	@r1,	r14	
    7f44:	04 24       	jz	$+10     	;abs 0x7f4e
    7f46:	7e f0 fe ff 	and.b	#-2,	r14	;#0xfffe
    7f4a:	6e d3       	bis.b	#2,	r14	;r3 As==10
    7f4c:	01 3c       	jmp	$+4      	;abs 0x7f50
    7f4e:	5e d3       	bis.b	#1,	r14	;r3 As==01
    7f50:	c1 4e 00 00 	mov.b	r14,	0(r1)	;0x0000(r1)
    7f54:	30 40 68 84 	br	#0x8468	
    7f58:	f1 d0 10 00 00 00 	bis.b	#16,	0(r1)	;#0x0010, 0x0000(r1)
    7f5e:	30 40 68 84 	br	#0x8468	
    7f62:	f1 40 2b 00 02 00 	mov.b	#43,	2(r1)	;#0x002b, 0x0002(r1)
    7f68:	30 40 68 84 	br	#0x8468	
    7f6c:	f1 90 2b 00 02 00 	cmp.b	#43,	2(r1)	;#0x002b, 0x0002(r1)
    7f72:	02 20       	jnz	$+6      	;abs 0x7f78
    7f74:	30 40 68 84 	br	#0x8468	
    7f78:	f1 40 20 00 02 00 	mov.b	#32,	2(r1)	;#0x0020, 0x0002(r1)
    7f7e:	30 40 68 84 	br	#0x8468	
    7f82:	c1 93 2a 00 	tst.b	42(r1)		;0x002a(r1)
    7f86:	02 24       	jz	$+6      	;abs 0x7f8c
    7f88:	30 40 4e 84 	br	#0x844e	
    7f8c:	d1 43 2e 00 	mov.b	#1,	46(r1)	;r3 As==01, 0x002e(r1)
    7f90:	30 40 68 84 	br	#0x8468	
    7f94:	0e 45       	mov	r5,	r14	
    7f96:	2e 53       	incd	r14		
    7f98:	2a 45       	mov	@r5,	r10	
    7f9a:	0a 93       	tst	r10		
    7f9c:	03 38       	jl	$+8      	;abs 0x7fa4
    7f9e:	81 4a 26 00 	mov	r10,	38(r1)	;0x0026(r1)
    7fa2:	0d 3c       	jmp	$+28     	;abs 0x7fbe
    7fa4:	c1 93 2e 00 	tst.b	46(r1)		;0x002e(r1)
    7fa8:	02 24       	jz	$+6      	;abs 0x7fae
    7faa:	30 40 5e 84 	br	#0x845e	
    7fae:	f1 d0 10 00 00 00 	bis.b	#16,	0(r1)	;#0x0010, 0x0000(r1)
    7fb4:	3a e3       	inv	r10		
    7fb6:	81 4a 26 00 	mov	r10,	38(r1)	;0x0026(r1)
    7fba:	91 53 26 00 	inc	38(r1)		;0x0026(r1)
    7fbe:	05 4e       	mov	r14,	r5	
    7fc0:	27 3c       	jmp	$+80     	;abs 0x8010
    7fc2:	81 93 26 00 	tst	38(r1)		;0x0026(r1)
    7fc6:	15 20       	jnz	$+44     	;abs 0x7ff2
    7fc8:	c1 93 2e 00 	tst.b	46(r1)		;0x002e(r1)
    7fcc:	12 20       	jnz	$+38     	;abs 0x7ff2
    7fce:	69 41       	mov.b	@r1,	r9	
    7fd0:	79 f0 10 00 	and.b	#16,	r9	;#0x0010
    7fd4:	5e 43       	mov.b	#1,	r14	;r3 As==01
    7fd6:	01 24       	jz	$+4      	;abs 0x7fda
    7fd8:	4e 43       	clr.b	r14		
    7fda:	4e 4e       	mov.b	r14,	r14	
    7fdc:	0e 11       	rra	r14		
    7fde:	0e 43       	clr	r14		
    7fe0:	4e 10       	rrc.b	r14		
    7fe2:	6a 41       	mov.b	@r1,	r10	
    7fe4:	7a f0 7f 00 	and.b	#127,	r10	;#0x007f
    7fe8:	4a de       	bis.b	r14,	r10	
    7fea:	c1 4a 00 00 	mov.b	r10,	0(r1)	;0x0000(r1)
    7fee:	30 40 68 84 	br	#0x8468	
    7ff2:	1a 41 26 00 	mov	38(r1),	r10	;0x0026(r1)
    7ff6:	0a 5a       	rla	r10		
    7ff8:	0c 4a       	mov	r10,	r12	
    7ffa:	0c 5c       	rla	r12		
    7ffc:	0c 5c       	rla	r12		
    7ffe:	0a 5c       	add	r12,	r10	
    8000:	81 4a 26 00 	mov	r10,	38(r1)	;0x0026(r1)
    8004:	b1 50 d0 ff 26 00 	add	#-48,	38(r1)	;#0xffd0, 0x0026(r1)
    800a:	8e 11       	sxt	r14		
    800c:	81 5e 26 00 	add	r14,	38(r1)	;0x0026(r1)
    8010:	d1 43 2a 00 	mov.b	#1,	42(r1)	;r3 As==01, 0x002a(r1)
    8014:	30 40 68 84 	br	#0x8468	
    8018:	07 45       	mov	r5,	r7	
    801a:	27 53       	incd	r7		
    801c:	6e 45       	mov.b	@r5,	r14	
    801e:	c1 93 2e 00 	tst.b	46(r1)		;0x002e(r1)
    8022:	03 20       	jnz	$+8      	;abs 0x802a
    8024:	c1 93 2a 00 	tst.b	42(r1)		;0x002a(r1)
    8028:	26 27       	jz	$-434    	;abs 0x7e76
    802a:	c1 4e 04 00 	mov.b	r14,	4(r1)	;0x0004(r1)
    802e:	c1 43 05 00 	mov.b	#0,	5(r1)	;r3 As==00, 0x0005(r1)
    8032:	0e 41       	mov	r1,	r14	
    8034:	2e 52       	add	#4,	r14	;r2 As==10
    8036:	03 3c       	jmp	$+8      	;abs 0x803e
    8038:	07 45       	mov	r5,	r7	
    803a:	27 53       	incd	r7		
    803c:	2e 45       	mov	@r5,	r14	
    803e:	c1 93 2e 00 	tst.b	46(r1)		;0x002e(r1)
    8042:	07 24       	jz	$+16     	;abs 0x8052
    8044:	e1 d2 01 00 	bis.b	#4,	1(r1)	;r2 As==10, 0x0001(r1)
    8048:	1f 41 26 00 	mov	38(r1),	r15	;0x0026(r1)
    804c:	c1 4f 03 00 	mov.b	r15,	3(r1)	;0x0003(r1)
    8050:	06 3c       	jmp	$+14     	;abs 0x805e
    8052:	c1 93 2a 00 	tst.b	42(r1)		;0x002a(r1)
    8056:	03 24       	jz	$+8      	;abs 0x805e
    8058:	91 41 26 00 30 00 	mov	38(r1),	48(r1)	;0x0026(r1), 0x0030(r1)
    805e:	0e 93       	tst	r14		
    8060:	02 20       	jnz	$+6      	;abs 0x8066
    8062:	3e 40 40 86 	mov	#-31168,r14	;#0x8640
    8066:	11 12 04 00 	push	4(r1)		;0x0004(r1)
    806a:	11 12 04 00 	push	4(r1)		;0x0004(r1)
    806e:	1d 41 34 00 	mov	52(r1),	r13	;0x0034(r1)
    8072:	1f 41 3e 00 	mov	62(r1),	r15	;0x003e(r1)
    8076:	b0 12 5c 7c 	call	#0x7c5c	
    807a:	21 52       	add	#4,	r1	;r2 As==10
    807c:	81 5f 2c 00 	add	r15,	44(r1)	;0x002c(r1)
    8080:	05 47       	mov	r7,	r5	
    8082:	30 40 4a 84 	br	#0x844a	
    8086:	07 45       	mov	r5,	r7	
    8088:	27 53       	incd	r7		
    808a:	29 45       	mov	@r5,	r9	
    808c:	81 49 1e 00 	mov	r9,	30(r1)	;0x001e(r1)
    8090:	5e 43       	mov.b	#1,	r14	;r3 As==01
    8092:	09 93       	tst	r9		
    8094:	01 20       	jnz	$+4      	;abs 0x8098
    8096:	4e 43       	clr.b	r14		
    8098:	4e 5e       	rla.b	r14		
    809a:	4e 5e       	rla.b	r14		
    809c:	4e 5e       	rla.b	r14		
    809e:	6a 41       	mov.b	@r1,	r10	
    80a0:	7a f0 f7 ff 	and.b	#-9,	r10	;#0xfff7
    80a4:	4a de       	bis.b	r14,	r10	
    80a6:	c1 4a 00 00 	mov.b	r10,	0(r1)	;0x0000(r1)
    80aa:	05 47       	mov	r7,	r5	
    80ac:	b1 40 10 00 28 00 	mov	#16,	40(r1)	;#0x0010, 0x0028(r1)
    80b2:	53 3c       	jmp	$+168    	;abs 0x815a
    80b4:	d1 d3 01 00 	bis.b	#1,	1(r1)	;r3 As==01, 0x0001(r1)
    80b8:	06 3c       	jmp	$+14     	;abs 0x80c6
    80ba:	e1 d2 00 00 	bis.b	#4,	0(r1)	;r2 As==10, 0x0000(r1)
    80be:	b1 40 0a 00 28 00 	mov	#10,	40(r1)	;#0x000a, 0x0028(r1)
    80c4:	03 3c       	jmp	$+8      	;abs 0x80cc
    80c6:	b1 40 10 00 28 00 	mov	#16,	40(r1)	;#0x0010, 0x0028(r1)
    80cc:	6b 41       	mov.b	@r1,	r11	
    80ce:	6b b3       	bit.b	#2,	r11	;r3 As==10
    80d0:	24 24       	jz	$+74     	;abs 0x811a
    80d2:	0c 45       	mov	r5,	r12	
    80d4:	3c 52       	add	#8,	r12	;r2 As==11
    80d6:	28 45       	mov	@r5,	r8	
    80d8:	17 45 02 00 	mov	2(r5),	r7	;0x0002(r5)
    80dc:	16 45 04 00 	mov	4(r5),	r6	;0x0004(r5)
    80e0:	1b 45 06 00 	mov	6(r5),	r11	;0x0006(r5)
    80e4:	81 48 1e 00 	mov	r8,	30(r1)	;0x001e(r1)
    80e8:	81 47 20 00 	mov	r7,	32(r1)	;0x0020(r1)
    80ec:	81 46 22 00 	mov	r6,	34(r1)	;0x0022(r1)
    80f0:	81 4b 24 00 	mov	r11,	36(r1)	;0x0024(r1)
    80f4:	d1 43 2b 00 	mov.b	#1,	43(r1)	;r3 As==01, 0x002b(r1)
    80f8:	08 93       	tst	r8		
    80fa:	06 20       	jnz	$+14     	;abs 0x8108
    80fc:	07 93       	tst	r7		
    80fe:	04 20       	jnz	$+10     	;abs 0x8108
    8100:	06 93       	tst	r6		
    8102:	02 20       	jnz	$+6      	;abs 0x8108
    8104:	0b 93       	tst	r11		
    8106:	02 24       	jz	$+6      	;abs 0x810c
    8108:	c1 43 2b 00 	mov.b	#0,	43(r1)	;r3 As==00, 0x002b(r1)
    810c:	0b 5b       	rla	r11		
    810e:	0b 43       	clr	r11		
    8110:	0b 6b       	rlc	r11		
    8112:	c1 4b 2f 00 	mov.b	r11,	47(r1)	;0x002f(r1)
    8116:	05 4c       	mov	r12,	r5	
    8118:	20 3c       	jmp	$+66     	;abs 0x815a
    811a:	5b f3       	and.b	#1,	r11	;r3 As==01
    811c:	07 45       	mov	r5,	r7	
    811e:	0d 24       	jz	$+28     	;abs 0x813a
    8120:	27 52       	add	#4,	r7	;r2 As==10
    8122:	28 45       	mov	@r5,	r8	
    8124:	1b 45 02 00 	mov	2(r5),	r11	;0x0002(r5)
    8128:	81 48 1e 00 	mov	r8,	30(r1)	;0x001e(r1)
    812c:	81 4b 20 00 	mov	r11,	32(r1)	;0x0020(r1)
    8130:	d1 43 2b 00 	mov.b	#1,	43(r1)	;r3 As==01, 0x002b(r1)
    8134:	08 93       	tst	r8		
    8136:	09 20       	jnz	$+20     	;abs 0x814a
    8138:	06 3c       	jmp	$+14     	;abs 0x8146
    813a:	27 53       	incd	r7		
    813c:	2b 45       	mov	@r5,	r11	
    813e:	81 4b 1e 00 	mov	r11,	30(r1)	;0x001e(r1)
    8142:	d1 43 2b 00 	mov.b	#1,	43(r1)	;r3 As==01, 0x002b(r1)
    8146:	0b 93       	tst	r11		
    8148:	02 24       	jz	$+6      	;abs 0x814e
    814a:	c1 43 2b 00 	mov.b	#0,	43(r1)	;r3 As==00, 0x002b(r1)
    814e:	0b 5b       	rla	r11		
    8150:	0b 43       	clr	r11		
    8152:	0b 6b       	rlc	r11		
    8154:	c1 4b 2f 00 	mov.b	r11,	47(r1)	;0x002f(r1)
    8158:	05 47       	mov	r7,	r5	
    815a:	f1 b2 00 00 	bit.b	#8,	0(r1)	;r2 As==11, 0x0000(r1)
    815e:	12 24       	jz	$+38     	;abs 0x8184
    8160:	c1 93 2b 00 	tst.b	43(r1)		;0x002b(r1)
    8164:	0f 20       	jnz	$+32     	;abs 0x8184
    8166:	68 41       	mov.b	@r1,	r8	
    8168:	b1 90 10 00 28 00 	cmp	#16,	40(r1)	;#0x0010, 0x0028(r1)
    816e:	03 20       	jnz	$+8      	;abs 0x8176
    8170:	78 d0 40 00 	bis.b	#64,	r8	;#0x0040
    8174:	05 3c       	jmp	$+12     	;abs 0x8180
    8176:	b1 92 28 00 	cmp	#8,	40(r1)	;r2 As==11, 0x0028(r1)
    817a:	04 20       	jnz	$+10     	;abs 0x8184
    817c:	78 d0 20 00 	bis.b	#32,	r8	;#0x0020
    8180:	c1 48 00 00 	mov.b	r8,	0(r1)	;0x0000(r1)
    8184:	68 41       	mov.b	@r1,	r8	
    8186:	68 b2       	bit.b	#4,	r8	;r2 As==10
    8188:	30 24       	jz	$+98     	;abs 0x81ea
    818a:	c1 93 2f 00 	tst.b	47(r1)		;0x002f(r1)
    818e:	2d 24       	jz	$+92     	;abs 0x81ea
    8190:	f1 40 2d 00 02 00 	mov.b	#45,	2(r1)	;#0x002d, 0x0002(r1)
    8196:	68 b3       	bit.b	#2,	r8	;r3 As==10
    8198:	11 24       	jz	$+36     	;abs 0x81bc
    819a:	b1 e3 1e 00 	xor	#-1,	30(r1)	;r3 As==11, 0x001e(r1)
    819e:	b1 e3 20 00 	xor	#-1,	32(r1)	;r3 As==11, 0x0020(r1)
    81a2:	b1 e3 22 00 	xor	#-1,	34(r1)	;r3 As==11, 0x0022(r1)
    81a6:	b1 e3 24 00 	xor	#-1,	36(r1)	;r3 As==11, 0x0024(r1)
    81aa:	91 53 1e 00 	inc	30(r1)		;0x001e(r1)
    81ae:	81 63 20 00 	adc	32(r1)		;0x0020(r1)
    81b2:	81 63 22 00 	adc	34(r1)		;0x0022(r1)
    81b6:	81 63 24 00 	adc	36(r1)		;0x0024(r1)
    81ba:	17 3c       	jmp	$+48     	;abs 0x81ea
    81bc:	58 b3       	bit.b	#1,	r8	;r3 As==01
    81be:	0f 24       	jz	$+32     	;abs 0x81de
    81c0:	1a 41 1e 00 	mov	30(r1),	r10	;0x001e(r1)
    81c4:	1b 41 20 00 	mov	32(r1),	r11	;0x0020(r1)
    81c8:	3a e3       	inv	r10		
    81ca:	3b e3       	inv	r11		
    81cc:	0e 4a       	mov	r10,	r14	
    81ce:	0f 4b       	mov	r11,	r15	
    81d0:	1e 53       	inc	r14		
    81d2:	0f 63       	adc	r15		
    81d4:	81 4e 1e 00 	mov	r14,	30(r1)	;0x001e(r1)
    81d8:	81 4f 20 00 	mov	r15,	32(r1)	;0x0020(r1)
    81dc:	06 3c       	jmp	$+14     	;abs 0x81ea
    81de:	1a 41 1e 00 	mov	30(r1),	r10	;0x001e(r1)
    81e2:	3a e3       	inv	r10		
    81e4:	1a 53       	inc	r10		
    81e6:	81 4a 1e 00 	mov	r10,	30(r1)	;0x001e(r1)
    81ea:	c1 43 1b 00 	mov.b	#0,	27(r1)	;r3 As==00, 0x001b(r1)
    81ee:	68 b3       	bit.b	#2,	r8	;r3 As==10
    81f0:	6a 24       	jz	$+214    	;abs 0x82c6
    81f2:	16 41 1e 00 	mov	30(r1),	r6	;0x001e(r1)
    81f6:	91 41 20 00 3c 00 	mov	32(r1),	60(r1)	;0x0020(r1), 0x003c(r1)
    81fc:	18 41 22 00 	mov	34(r1),	r8	;0x0022(r1)
    8200:	14 41 24 00 	mov	36(r1),	r4	;0x0024(r1)
    8204:	07 41       	mov	r1,	r7	
    8206:	37 50 1a 00 	add	#26,	r7	;#0x001a
    820a:	09 46       	mov	r6,	r9	
    820c:	91 41 28 00 32 00 	mov	40(r1),	50(r1)	;0x0028(r1), 0x0032(r1)
    8212:	1b 41 28 00 	mov	40(r1),	r11	;0x0028(r1)
    8216:	8b 10       	swpb	r11		
    8218:	8b 11       	sxt	r11		
    821a:	8b 10       	swpb	r11		
    821c:	8b 11       	sxt	r11		
    821e:	81 4b 34 00 	mov	r11,	52(r1)	;0x0034(r1)
    8222:	81 4b 36 00 	mov	r11,	54(r1)	;0x0036(r1)
    8226:	81 4b 38 00 	mov	r11,	56(r1)	;0x0038(r1)
    822a:	11 12 3a 00 	push	58(r1)		;0x003a(r1)
    822e:	11 12 3a 00 	push	58(r1)		;0x003a(r1)
    8232:	11 12 3a 00 	push	58(r1)		;0x003a(r1)
    8236:	11 12 3a 00 	push	58(r1)		;0x003a(r1)
    823a:	0c 49       	mov	r9,	r12	
    823c:	1d 41 44 00 	mov	68(r1),	r13	;0x0044(r1)
    8240:	0e 48       	mov	r8,	r14	
    8242:	0f 44       	mov	r4,	r15	
    8244:	b0 12 56 85 	call	#0x8556	
    8248:	31 52       	add	#8,	r1	;r2 As==11
    824a:	0b 4c       	mov	r12,	r11	
    824c:	3c 90 0a 00 	cmp	#10,	r12	;#0x000a
    8250:	05 34       	jge	$+12     	;abs 0x825c
    8252:	7b 50 30 00 	add.b	#48,	r11	;#0x0030
    8256:	c7 4b 00 00 	mov.b	r11,	0(r7)	;0x0000(r7)
    825a:	0c 3c       	jmp	$+26     	;abs 0x8274
    825c:	4b 4c       	mov.b	r12,	r11	
    825e:	d1 b3 01 00 	bit.b	#1,	1(r1)	;r3 As==01, 0x0001(r1)
    8262:	03 24       	jz	$+8      	;abs 0x826a
    8264:	7a 40 37 00 	mov.b	#55,	r10	;#0x0037
    8268:	02 3c       	jmp	$+6      	;abs 0x826e
    826a:	7a 40 57 00 	mov.b	#87,	r10	;#0x0057
    826e:	4a 5b       	add.b	r11,	r10	
    8270:	c7 4a 00 00 	mov.b	r10,	0(r7)	;0x0000(r7)
    8274:	06 47       	mov	r7,	r6	
    8276:	36 53       	add	#-1,	r6	;r3 As==11
    8278:	11 12 3a 00 	push	58(r1)		;0x003a(r1)
    827c:	11 12 3a 00 	push	58(r1)		;0x003a(r1)
    8280:	11 12 3a 00 	push	58(r1)		;0x003a(r1)
    8284:	11 12 3a 00 	push	58(r1)		;0x003a(r1)
    8288:	0c 49       	mov	r9,	r12	
    828a:	1d 41 44 00 	mov	68(r1),	r13	;0x0044(r1)
    828e:	0e 48       	mov	r8,	r14	
    8290:	0f 44       	mov	r4,	r15	
    8292:	b0 12 30 85 	call	#0x8530	
    8296:	31 52       	add	#8,	r1	;r2 As==11
    8298:	09 4c       	mov	r12,	r9	
    829a:	81 4d 3c 00 	mov	r13,	60(r1)	;0x003c(r1)
    829e:	08 4e       	mov	r14,	r8	
    82a0:	04 4f       	mov	r15,	r4	
    82a2:	37 53       	add	#-1,	r7	;r3 As==11
    82a4:	0c 93       	tst	r12		
    82a6:	b2 23       	jnz	$-154    	;abs 0x820c
    82a8:	0d 93       	tst	r13		
    82aa:	b0 23       	jnz	$-158    	;abs 0x820c
    82ac:	0e 93       	tst	r14		
    82ae:	ae 23       	jnz	$-162    	;abs 0x820c
    82b0:	0f 93       	tst	r15		
    82b2:	ac 23       	jnz	$-166    	;abs 0x820c
    82b4:	81 43 1e 00 	mov	#0,	30(r1)	;r3 As==00, 0x001e(r1)
    82b8:	81 43 20 00 	mov	#0,	32(r1)	;r3 As==00, 0x0020(r1)
    82bc:	81 43 22 00 	mov	#0,	34(r1)	;r3 As==00, 0x0022(r1)
    82c0:	81 43 24 00 	mov	#0,	36(r1)	;r3 As==00, 0x0024(r1)
    82c4:	6c 3c       	jmp	$+218    	;abs 0x839e
    82c6:	58 b3       	bit.b	#1,	r8	;r3 As==01
    82c8:	3e 24       	jz	$+126    	;abs 0x8346
    82ca:	14 41 1e 00 	mov	30(r1),	r4	;0x001e(r1)
    82ce:	17 41 20 00 	mov	32(r1),	r7	;0x0020(r1)
    82d2:	08 41       	mov	r1,	r8	
    82d4:	38 50 1a 00 	add	#26,	r8	;#0x001a
    82d8:	19 41 28 00 	mov	40(r1),	r9	;0x0028(r1)
    82dc:	89 10       	swpb	r9		
    82de:	89 11       	sxt	r9		
    82e0:	89 10       	swpb	r9		
    82e2:	89 11       	sxt	r9		
    82e4:	1c 41 28 00 	mov	40(r1),	r12	;0x0028(r1)
    82e8:	0d 49       	mov	r9,	r13	
    82ea:	0e 44       	mov	r4,	r14	
    82ec:	0f 47       	mov	r7,	r15	
    82ee:	b0 12 c8 84 	call	#0x84c8	
    82f2:	0b 4e       	mov	r14,	r11	
    82f4:	3e 90 0a 00 	cmp	#10,	r14	;#0x000a
    82f8:	05 34       	jge	$+12     	;abs 0x8304
    82fa:	7b 50 30 00 	add.b	#48,	r11	;#0x0030
    82fe:	c8 4b 00 00 	mov.b	r11,	0(r8)	;0x0000(r8)
    8302:	0c 3c       	jmp	$+26     	;abs 0x831c
    8304:	4b 4e       	mov.b	r14,	r11	
    8306:	d1 b3 01 00 	bit.b	#1,	1(r1)	;r3 As==01, 0x0001(r1)
    830a:	03 24       	jz	$+8      	;abs 0x8312
    830c:	7a 40 37 00 	mov.b	#55,	r10	;#0x0037
    8310:	02 3c       	jmp	$+6      	;abs 0x8316
    8312:	7a 40 57 00 	mov.b	#87,	r10	;#0x0057
    8316:	4a 5b       	add.b	r11,	r10	
    8318:	c8 4a 00 00 	mov.b	r10,	0(r8)	;0x0000(r8)
    831c:	06 48       	mov	r8,	r6	
    831e:	36 53       	add	#-1,	r6	;r3 As==11
    8320:	1c 41 28 00 	mov	40(r1),	r12	;0x0028(r1)
    8324:	0d 49       	mov	r9,	r13	
    8326:	0e 44       	mov	r4,	r14	
    8328:	0f 47       	mov	r7,	r15	
    832a:	b0 12 92 84 	call	#0x8492	
    832e:	04 4e       	mov	r14,	r4	
    8330:	07 4f       	mov	r15,	r7	
    8332:	38 53       	add	#-1,	r8	;r3 As==11
    8334:	0e 93       	tst	r14		
    8336:	d0 23       	jnz	$-94     	;abs 0x82d8
    8338:	0f 93       	tst	r15		
    833a:	ce 23       	jnz	$-98     	;abs 0x82d8
    833c:	81 43 1e 00 	mov	#0,	30(r1)	;r3 As==00, 0x001e(r1)
    8340:	81 43 20 00 	mov	#0,	32(r1)	;r3 As==00, 0x0020(r1)
    8344:	2c 3c       	jmp	$+90     	;abs 0x839e
    8346:	17 41 1e 00 	mov	30(r1),	r7	;0x001e(r1)
    834a:	08 41       	mov	r1,	r8	
    834c:	38 50 1a 00 	add	#26,	r8	;#0x001a
    8350:	1e 41 28 00 	mov	40(r1),	r14	;0x0028(r1)
    8354:	0f 47       	mov	r7,	r15	
    8356:	b0 12 b2 7a 	call	#0x7ab2	
    835a:	0d 4f       	mov	r15,	r13	
    835c:	3f 90 0a 00 	cmp	#10,	r15	;#0x000a
    8360:	05 34       	jge	$+12     	;abs 0x836c
    8362:	7d 50 30 00 	add.b	#48,	r13	;#0x0030
    8366:	c8 4d 00 00 	mov.b	r13,	0(r8)	;0x0000(r8)
    836a:	0c 3c       	jmp	$+26     	;abs 0x8384
    836c:	4d 4f       	mov.b	r15,	r13	
    836e:	d1 b3 01 00 	bit.b	#1,	1(r1)	;r3 As==01, 0x0001(r1)
    8372:	03 24       	jz	$+8      	;abs 0x837a
    8374:	7c 40 37 00 	mov.b	#55,	r12	;#0x0037
    8378:	02 3c       	jmp	$+6      	;abs 0x837e
    837a:	7c 40 57 00 	mov.b	#87,	r12	;#0x0057
    837e:	4c 5d       	add.b	r13,	r12	
    8380:	c8 4c 00 00 	mov.b	r12,	0(r8)	;0x0000(r8)
    8384:	06 48       	mov	r8,	r6	
    8386:	36 53       	add	#-1,	r6	;r3 As==11
    8388:	1e 41 28 00 	mov	40(r1),	r14	;0x0028(r1)
    838c:	0f 47       	mov	r7,	r15	
    838e:	b0 12 98 7a 	call	#0x7a98	
    8392:	07 4f       	mov	r15,	r7	
    8394:	38 53       	add	#-1,	r8	;r3 As==11
    8396:	0f 93       	tst	r15		
    8398:	db 23       	jnz	$-72     	;abs 0x8350
    839a:	81 43 1e 00 	mov	#0,	30(r1)	;r3 As==00, 0x001e(r1)
    839e:	b1 90 0a 00 28 00 	cmp	#10,	40(r1)	;#0x000a, 0x0028(r1)
    83a4:	02 24       	jz	$+6      	;abs 0x83aa
    83a6:	c1 43 02 00 	mov.b	#0,	2(r1)	;r3 As==00, 0x0002(r1)
    83aa:	c1 93 2e 00 	tst.b	46(r1)		;0x002e(r1)
    83ae:	2a 24       	jz	$+86     	;abs 0x8404
    83b0:	0f 41       	mov	r1,	r15	
    83b2:	3f 50 1c 00 	add	#28,	r15	;#0x001c
    83b6:	81 4f 42 00 	mov	r15,	66(r1)	;0x0042(r1)
    83ba:	1a 41 1c 00 	mov	28(r1),	r10	;0x001c(r1)
    83be:	8a 10       	swpb	r10		
    83c0:	8a 11       	sxt	r10		
    83c2:	8a 10       	swpb	r10		
    83c4:	8a 11       	sxt	r10		
    83c6:	81 4a 44 00 	mov	r10,	68(r1)	;0x0044(r1)
    83ca:	81 46 46 00 	mov	r6,	70(r1)	;0x0046(r1)
    83ce:	0a 46       	mov	r6,	r10	
    83d0:	8a 10       	swpb	r10		
    83d2:	8a 11       	sxt	r10		
    83d4:	8a 10       	swpb	r10		
    83d6:	8a 11       	sxt	r10		
    83d8:	81 4a 48 00 	mov	r10,	72(r1)	;0x0048(r1)
    83dc:	1c 41 42 00 	mov	66(r1),	r12	;0x0042(r1)
    83e0:	1d 41 44 00 	mov	68(r1),	r13	;0x0044(r1)
    83e4:	1c 81 46 00 	sub	70(r1),	r12	;0x0046(r1)
    83e8:	1d 71 48 00 	subc	72(r1),	r13	;0x0048(r1)
    83ec:	2c 83       	decd	r12		
    83ee:	1c 91 26 00 	cmp	38(r1),	r12	;0x0026(r1)
    83f2:	0e 2c       	jc	$+30     	;abs 0x8410
    83f4:	e1 d3 01 00 	bis.b	#2,	1(r1)	;r3 As==10, 0x0001(r1)
    83f8:	5e 41 26 00 	mov.b	38(r1),	r14	;0x0026(r1)
    83fc:	4e 8c       	sub.b	r12,	r14	
    83fe:	c1 4e 03 00 	mov.b	r14,	3(r1)	;0x0003(r1)
    8402:	06 3c       	jmp	$+14     	;abs 0x8410
    8404:	c1 93 2a 00 	tst.b	42(r1)		;0x002a(r1)
    8408:	03 24       	jz	$+8      	;abs 0x8410
    840a:	91 41 26 00 30 00 	mov	38(r1),	48(r1)	;0x0026(r1), 0x0030(r1)
    8410:	11 12 04 00 	push	4(r1)		;0x0004(r1)
    8414:	11 12 04 00 	push	4(r1)		;0x0004(r1)
    8418:	1d 41 34 00 	mov	52(r1),	r13	;0x0034(r1)
    841c:	0e 46       	mov	r6,	r14	
    841e:	1e 53       	inc	r14		
    8420:	1f 41 3e 00 	mov	62(r1),	r15	;0x003e(r1)
    8424:	b0 12 5c 7c 	call	#0x7c5c	
    8428:	21 52       	add	#4,	r1	;r2 As==10
    842a:	81 5f 2c 00 	add	r15,	44(r1)	;0x002c(r1)
    842e:	0d 3c       	jmp	$+28     	;abs 0x844a
    8430:	7f 49       	mov.b	@r9+,	r15	
    8432:	8f 11       	sxt	r15		
    8434:	91 12 3c 00 	call	60(r1)		;0x003c(r1)
    8438:	0e 49       	mov	r9,	r14	
    843a:	0e 58       	add	r8,	r14	
    843c:	19 91 40 00 	cmp	64(r1),	r9	;0x0040(r1)
    8440:	f7 2b       	jnc	$-16     	;abs 0x8430
    8442:	81 49 3e 00 	mov	r9,	62(r1)	;0x003e(r1)
    8446:	81 4e 2c 00 	mov	r14,	44(r1)	;0x002c(r1)
    844a:	07 43       	clr	r7		
    844c:	0e 3c       	jmp	$+30     	;abs 0x846a
    844e:	91 41 26 00 30 00 	mov	38(r1),	48(r1)	;0x0026(r1), 0x0030(r1)
    8454:	d1 43 2e 00 	mov.b	#1,	46(r1)	;r3 As==01, 0x002e(r1)
    8458:	c1 43 2a 00 	mov.b	#0,	42(r1)	;r3 As==00, 0x002a(r1)
    845c:	03 3c       	jmp	$+8      	;abs 0x8464
    845e:	05 4e       	mov	r14,	r5	
    8460:	d1 43 2a 00 	mov.b	#1,	42(r1)	;r3 As==01, 0x002a(r1)
    8464:	81 43 26 00 	mov	#0,	38(r1)	;r3 As==00, 0x0026(r1)
    8468:	17 43       	mov	#1,	r7	;r3 As==01
    846a:	16 41 40 00 	mov	64(r1),	r6	;0x0040(r1)
    846e:	6e 46       	mov.b	@r6,	r14	
    8470:	4e 93       	tst.b	r14		
    8472:	02 24       	jz	$+6      	;abs 0x8478
    8474:	30 40 40 7e 	br	#0x7e40	
    8478:	1f 41 2c 00 	mov	44(r1),	r15	;0x002c(r1)
    847c:	31 50 4a 00 	add	#74,	r1	;#0x004a
    8480:	34 41       	pop	r4		
    8482:	35 41       	pop	r5		
    8484:	36 41       	pop	r6		
    8486:	37 41       	pop	r7		
    8488:	38 41       	pop	r8		
    848a:	39 41       	pop	r9		
    848c:	3a 41       	pop	r10		
    848e:	3b 41       	pop	r11		
    8490:	30 41       	ret			

00008492 <__udivsi3>:
    8492:	0b 12       	push	r11		
    8494:	0a 12       	push	r10		
    8496:	09 12       	push	r9		
    8498:	79 40 20 00 	mov.b	#32,	r9	;#0x0020
    849c:	0a 4c       	mov	r12,	r10	
    849e:	0b 4d       	mov	r13,	r11	
    84a0:	0c 43       	clr	r12		
    84a2:	0d 43       	clr	r13		
    84a4:	0e 5e       	rla	r14		
    84a6:	0f 6f       	rlc	r15		
    84a8:	0c 6c       	rlc	r12		
    84aa:	0d 6d       	rlc	r13		
    84ac:	0d 9b       	cmp	r11,	r13	
    84ae:	06 28       	jnc	$+14     	;abs 0x84bc
    84b0:	02 20       	jnz	$+6      	;abs 0x84b6
    84b2:	0c 9a       	cmp	r10,	r12	
    84b4:	03 28       	jnc	$+8      	;abs 0x84bc
    84b6:	0c 8a       	sub	r10,	r12	
    84b8:	0d 7b       	subc	r11,	r13	
    84ba:	1e d3       	bis	#1,	r14	;r3 As==01
    84bc:	19 83       	dec	r9		
    84be:	f2 23       	jnz	$-26     	;abs 0x84a4
    84c0:	39 41       	pop	r9		
    84c2:	3a 41       	pop	r10		
    84c4:	3b 41       	pop	r11		
    84c6:	30 41       	ret			

000084c8 <__umodsi3>:
    84c8:	b0 12 92 84 	call	#0x8492	
    84cc:	0e 4c       	mov	r12,	r14	
    84ce:	0f 4d       	mov	r13,	r15	
    84d0:	30 41       	ret			

000084d2 <__xabi_udivmod64>:
    84d2:	07 12       	push	r7		
    84d4:	06 12       	push	r6		
    84d6:	05 12       	push	r5		
    84d8:	04 12       	push	r4		
    84da:	30 12 40 00 	push	#64		;#0x0040
    84de:	04 48       	mov	r8,	r4	
    84e0:	05 49       	mov	r9,	r5	
    84e2:	06 4a       	mov	r10,	r6	
    84e4:	07 4b       	mov	r11,	r7	
    84e6:	08 43       	clr	r8		
    84e8:	09 43       	clr	r9		
    84ea:	0a 43       	clr	r10		
    84ec:	0b 43       	clr	r11		
    84ee:	0c 5c       	rla	r12		
    84f0:	0d 6d       	rlc	r13		
    84f2:	0e 6e       	rlc	r14		
    84f4:	0f 6f       	rlc	r15		
    84f6:	08 68       	rlc	r8		
    84f8:	09 69       	rlc	r9		
    84fa:	0a 6a       	rlc	r10		
    84fc:	0b 6b       	rlc	r11		
    84fe:	0b 97       	cmp	r7,	r11	
    8500:	0e 28       	jnc	$+30     	;abs 0x851e
    8502:	08 20       	jnz	$+18     	;abs 0x8514
    8504:	0a 96       	cmp	r6,	r10	
    8506:	0b 28       	jnc	$+24     	;abs 0x851e
    8508:	05 20       	jnz	$+12     	;abs 0x8514
    850a:	09 95       	cmp	r5,	r9	
    850c:	08 28       	jnc	$+18     	;abs 0x851e
    850e:	02 20       	jnz	$+6      	;abs 0x8514
    8510:	08 94       	cmp	r4,	r8	
    8512:	05 28       	jnc	$+12     	;abs 0x851e
    8514:	08 84       	sub	r4,	r8	
    8516:	09 75       	subc	r5,	r9	
    8518:	0a 76       	subc	r6,	r10	
    851a:	0b 77       	subc	r7,	r11	
    851c:	1c d3       	bis	#1,	r12	;r3 As==01
    851e:	91 83 00 00 	dec	0(r1)		;0x0000(r1)
    8522:	e5 23       	jnz	$-52     	;abs 0x84ee
    8524:	21 53       	incd	r1		
    8526:	34 41       	pop	r4		
    8528:	35 41       	pop	r5		
    852a:	36 41       	pop	r6		
    852c:	37 41       	pop	r7		
    852e:	30 41       	ret			

00008530 <__udivdi3>:
    8530:	0b 12       	push	r11		
    8532:	0a 12       	push	r10		
    8534:	09 12       	push	r9		
    8536:	08 12       	push	r8		
    8538:	18 41 0a 00 	mov	10(r1),	r8	;0x000a(r1)
    853c:	19 41 0c 00 	mov	12(r1),	r9	;0x000c(r1)
    8540:	1a 41 0e 00 	mov	14(r1),	r10	;0x000e(r1)
    8544:	1b 41 10 00 	mov	16(r1),	r11	;0x0010(r1)
    8548:	b0 12 d2 84 	call	#0x84d2	
    854c:	38 41       	pop	r8		
    854e:	39 41       	pop	r9		
    8550:	3a 41       	pop	r10		
    8552:	3b 41       	pop	r11		
    8554:	30 41       	ret			

00008556 <__umoddi3>:
    8556:	0b 12       	push	r11		
    8558:	0a 12       	push	r10		
    855a:	09 12       	push	r9		
    855c:	08 12       	push	r8		
    855e:	18 41 0a 00 	mov	10(r1),	r8	;0x000a(r1)
    8562:	19 41 0c 00 	mov	12(r1),	r9	;0x000c(r1)
    8566:	1a 41 0e 00 	mov	14(r1),	r10	;0x000e(r1)
    856a:	1b 41 10 00 	mov	16(r1),	r11	;0x0010(r1)
    856e:	b0 12 d2 84 	call	#0x84d2	
    8572:	0c 48       	mov	r8,	r12	
    8574:	0d 49       	mov	r9,	r13	
    8576:	0e 4a       	mov	r10,	r14	
    8578:	0f 4b       	mov	r11,	r15	
    857a:	38 41       	pop	r8		
    857c:	39 41       	pop	r9		
    857e:	3a 41       	pop	r10		
    8580:	3b 41       	pop	r11		
    8582:	30 41       	ret			

00008584 <__udivmoddi4>:
    8584:	0b 12       	push	r11		
    8586:	0a 12       	push	r10		
    8588:	09 12       	push	r9		
    858a:	08 12       	push	r8		
    858c:	07 12       	push	r7		
    858e:	18 41 0c 00 	mov	12(r1),	r8	;0x000c(r1)
    8592:	19 41 0e 00 	mov	14(r1),	r9	;0x000e(r1)
    8596:	1a 41 10 00 	mov	16(r1),	r10	;0x0010(r1)
    859a:	1b 41 12 00 	mov	18(r1),	r11	;0x0012(r1)
    859e:	b0 12 d2 84 	call	#0x84d2	
    85a2:	17 41 14 00 	mov	20(r1),	r7	;0x0014(r1)
    85a6:	87 48 00 00 	mov	r8,	0(r7)	;0x0000(r7)
    85aa:	87 49 02 00 	mov	r9,	2(r7)	;0x0002(r7)
    85ae:	87 4a 04 00 	mov	r10,	4(r7)	;0x0004(r7)
    85b2:	87 4b 06 00 	mov	r11,	6(r7)	;0x0006(r7)
    85b6:	37 41       	pop	r7		
    85b8:	38 41       	pop	r8		
    85ba:	39 41       	pop	r9		
    85bc:	3a 41       	pop	r10		
    85be:	3b 41       	pop	r11		
    85c0:	30 41       	ret			

000085c2 <_unexpected_>:
    85c2:	00 13       	reti			

Disassembly of section .vectors:

0000ffe0 <__ivtbl_16>:
    ffe0:	a4 45 50 77 02 79 7c 78 5e 76 f4 75 d6 75 a4 45     .EPw.y|x^v.u.u.E
    fff0:	5a 78 fe 77 a4 45 a4 45 38 76 1a 76 a4 45 00 40     Zx.w.E.E8v.v.E.@
